     VMA      LMA     Size Align Out     In      Symbol
       0        0        0     1 PAGE_SIZE = 512
       0        0        0     1 STACK_SIZE = 1500
       0        0        0     1 END_STACK = ORIGIN ( SRAM ) + LENGTH ( SRAM )
c0de0000 c0de0000     9600     4 .text
c0de0000 c0de0000        0     1         _text = .
c0de0000 c0de0000        0     1         _nvram_start = .
c0de0000 c0de0000        e     2         /app/target/nanosplus/release/deps/legder_xelis-53a0edecdc8ef744.legder_xelis.24eea2af218bcfe3-cgu.0.rcgu.o:(.boot)
c0de0000 c0de0000        0     1                 $t
c0de0001 c0de0001        e     1                 _start
c0de000e c0de000e       26     2         /app/target/nanosplus/release/deps/legder_xelis-53a0edecdc8ef744.legder_xelis.24eea2af218bcfe3-cgu.0.rcgu.o:(.text._ZN102_$LT$core..iter..adapters..map..Map$LT$I$C$F$GT$$u20$as$u20$core..iter..traits..iterator..Iterator$GT$9size_hint17hf600eeffaae11fe1E)
c0de000e c0de000e        0     1                 $t
c0de000f c0de000f       26     1                 _$LT$core..iter..adapters..map..Map$LT$I$C$F$GT$$u20$as$u20$core..iter..traits..iterator..Iterator$GT$::size_hint::hf600eeffaae11fe1
c0de0034 c0de0034       1c     2         /app/target/nanosplus/release/deps/legder_xelis-53a0edecdc8ef744.legder_xelis.24eea2af218bcfe3-cgu.0.rcgu.o:(.text._ZN106_$LT$core..ops..range..Range$LT$usize$GT$$u20$as$u20$core..slice..index..SliceIndex$LT$$u5b$T$u5d$$GT$$GT$9index_mut17hfea382c2f4a25d7fE)
c0de0034 c0de0034        0     1                 $t
c0de0035 c0de0035       1c     1                 _$LT$core..ops..range..Range$LT$usize$GT$$u20$as$u20$core..slice..index..SliceIndex$LT$$u5b$T$u5d$$GT$$GT$::index_mut::hfea382c2f4a25d7f
c0de0050 c0de0050        c     2         /app/target/nanosplus/release/deps/legder_xelis-53a0edecdc8ef744.legder_xelis.24eea2af218bcfe3-cgu.0.rcgu.o:(.text._ZN108_$LT$core..ops..range..RangeTo$LT$usize$GT$$u20$as$u20$core..slice..index..SliceIndex$LT$$u5b$T$u5d$$GT$$GT$9index_mut17hecd11f665b1904b5E)
c0de0050 c0de0050        0     1                 $t
c0de0051 c0de0051        c     1                 _$LT$core..ops..range..RangeTo$LT$usize$GT$$u20$as$u20$core..slice..index..SliceIndex$LT$$u5b$T$u5d$$GT$$GT$::index_mut::hecd11f665b1904b5
c0de005c c0de005c       16     2         /app/target/nanosplus/release/deps/legder_xelis-53a0edecdc8ef744.legder_xelis.24eea2af218bcfe3-cgu.0.rcgu.o:(.text._ZN110_$LT$core..ops..range..RangeFrom$LT$usize$GT$$u20$as$u20$core..slice..index..SliceIndex$LT$$u5b$T$u5d$$GT$$GT$5index17ha7715b10a27de07aE)
c0de005c c0de005c        0     1                 $t
c0de005d c0de005d       16     1                 _$LT$core..ops..range..RangeFrom$LT$usize$GT$$u20$as$u20$core..slice..index..SliceIndex$LT$$u5b$T$u5d$$GT$$GT$::index::ha7715b10a27de07a
c0de0072 c0de0072       2a     2         /app/target/nanosplus/release/deps/legder_xelis-53a0edecdc8ef744.legder_xelis.24eea2af218bcfe3-cgu.0.rcgu.o:(.text._ZN17ledger_device_sdk13exiting_panic17hb380d47c2999d9beE)
c0de0072 c0de0072        0     1                 $t
c0de0073 c0de0073       2a     1                 ledger_device_sdk::exiting_panic::hb380d47c2999d9be
c0de009c c0de009c       3e     2         /app/target/nanosplus/release/deps/legder_xelis-53a0edecdc8ef744.legder_xelis.24eea2af218bcfe3-cgu.0.rcgu.o:(.text._ZN17ledger_device_sdk2io4Comm5reply17h47389c8e0d505a39E)
c0de009c c0de009c        0     1                 $t
c0de009d c0de009d       3e     1                 ledger_device_sdk::io::Comm::reply::h47389c8e0d505a39
c0de00da c0de00da       1e     2         /app/target/nanosplus/release/deps/legder_xelis-53a0edecdc8ef744.legder_xelis.24eea2af218bcfe3-cgu.0.rcgu.o:(.text._ZN17ledger_device_sdk4hash8HashInit6update17hbd301b2915693e7aE)
c0de00da c0de00da        0     1                 $t
c0de00db c0de00db       1e     1                 ledger_device_sdk::hash::HashInit::update::hbd301b2915693e7a
c0de00f8 c0de00f8       30     2         /app/target/nanosplus/release/deps/legder_xelis-53a0edecdc8ef744.legder_xelis.24eea2af218bcfe3-cgu.0.rcgu.o:(.text._ZN17ledger_device_sdk4hash8HashInit8finalize17hac91020c6db69821E)
c0de00f8 c0de00f8        0     1                 $t
c0de00f9 c0de00f9       30     1                 ledger_device_sdk::hash::HashInit::finalize::hac91020c6db69821
c0de0128 c0de0128       c4     2         /app/target/nanosplus/release/deps/legder_xelis-53a0edecdc8ef744.legder_xelis.24eea2af218bcfe3-cgu.0.rcgu.o:(.text._ZN4core3num59_$LT$impl$u20$core..str..traits..FromStr$u20$for$u20$u8$GT$8from_str17h140d189f33bb5737E)
c0de0128 c0de0128        0     1                 $t
c0de0129 c0de0129       c4     1                 core::num::_$LT$impl$u20$core..str..traits..FromStr$u20$for$u20$u8$GT$::from_str::h140d189f33bb5737
c0de01ec c0de01ec        8     2         /app/target/nanosplus/release/deps/legder_xelis-53a0edecdc8ef744.legder_xelis.24eea2af218bcfe3-cgu.0.rcgu.o:(.text._ZN4core3ptr42drop_in_place$LT$alloc..string..String$GT$17h9cdf89c4d555bc76E)
c0de01ec c0de01ec        0     1                 $t
c0de01ed c0de01ed        8     1                 core::ptr::drop_in_place$LT$alloc..string..String$GT$::h9cdf89c4d555bc76
c0de01f4 c0de01f4       10     2         /app/target/nanosplus/release/deps/legder_xelis-53a0edecdc8ef744.legder_xelis.24eea2af218bcfe3-cgu.0.rcgu.o:(.text._ZN4core3ptr47drop_in_place$LT$alloc..ffi..c_str..CString$GT$17h4af76f9dd3e1e53cE)
c0de01f4 c0de01f4        0     1                 $t
c0de01f5 c0de01f5       10     1                 core::ptr::drop_in_place$LT$alloc..ffi..c_str..CString$GT$::h4af76f9dd3e1e53c
c0de0204 c0de0204        8     2         /app/target/nanosplus/release/deps/legder_xelis-53a0edecdc8ef744.legder_xelis.24eea2af218bcfe3-cgu.0.rcgu.o:(.text._ZN4core3ptr51drop_in_place$LT$legder_xelis..utils..Bip32Path$GT$17h67ebd7a748a0bb97E)
c0de0204 c0de0204        0     1                 $t
c0de0205 c0de0205        8     1                 core::ptr::drop_in_place$LT$legder_xelis..utils..Bip32Path$GT$::h67ebd7a748a0bb97
c0de020c c0de020c       3e     2         /app/target/nanosplus/release/deps/legder_xelis-53a0edecdc8ef744.legder_xelis.24eea2af218bcfe3-cgu.0.rcgu.o:(.text._ZN4core3ptr97drop_in_place$LT$alloc..vec..Vec$LT$$LP$alloc..string..String$C$alloc..string..String$RP$$GT$$GT$17h2351c18e1d9d66f5E)
c0de020c c0de020c        0     1                 $t
c0de020d c0de020d       3e     1                 core::ptr::drop_in_place$LT$alloc..vec..Vec$LT$$LP$alloc..string..String$C$alloc..string..String$RP$$GT$$GT$::h2351c18e1d9d66f5
c0de024a c0de024a       1a     2         /app/target/nanosplus/release/deps/legder_xelis-53a0edecdc8ef744.legder_xelis.24eea2af218bcfe3-cgu.0.rcgu.o:(.text._ZN4core3str6traits66_$LT$impl$u20$core..ops..index..Index$LT$I$GT$$u20$for$u20$str$GT$5index17h3134146b7fbbf013E)
c0de024a c0de024a        0     1                 $t
c0de024b c0de024b       1a     1                 core::str::traits::_$LT$impl$u20$core..ops..index..Index$LT$I$GT$$u20$for$u20$str$GT$::index::h3134146b7fbbf013
c0de0264 c0de0264       20     2         /app/target/nanosplus/release/deps/legder_xelis-53a0edecdc8ef744.legder_xelis.24eea2af218bcfe3-cgu.0.rcgu.o:(.text._ZN4core3str6traits66_$LT$impl$u20$core..ops..index..Index$LT$I$GT$$u20$for$u20$str$GT$5index17hf7db32d8eecd52e2E)
c0de0264 c0de0264        0     1                 $t
c0de0265 c0de0265       20     1                 core::str::traits::_$LT$impl$u20$core..ops..index..Index$LT$I$GT$$u20$for$u20$str$GT$::index::hf7db32d8eecd52e2
c0de0284 c0de0284       62     2         /app/target/nanosplus/release/deps/legder_xelis-53a0edecdc8ef744.legder_xelis.24eea2af218bcfe3-cgu.0.rcgu.o:(.text._ZN4core4char7methods22_$LT$impl$u20$char$GT$11encode_utf817h5598e6c4fb76442cE)
c0de0284 c0de0284        0     1                 $t
c0de0285 c0de0285       62     1                 core::char::methods::_$LT$impl$u20$char$GT$::encode_utf8::h5598e6c4fb76442c
c0de02e6 c0de02e6        c     2         /app/target/nanosplus/release/deps/legder_xelis-53a0edecdc8ef744.legder_xelis.24eea2af218bcfe3-cgu.0.rcgu.o:(.text._ZN4core5array85_$LT$impl$u20$core..ops..index..Index$LT$I$GT$$u20$for$u20$$u5b$T$u3b$$u20$N$u5d$$GT$5index17h0bcd32e4165fa521E)
c0de02e6 c0de02e6        0     1                 $t
c0de02e7 c0de02e7        c     1                 core::array::_$LT$impl$u20$core..ops..index..Index$LT$I$GT$$u20$for$u20$$u5b$T$u3b$$u20$N$u5d$$GT$::index::h0bcd32e4165fa521
c0de02f2 c0de02f2       12     2         /app/target/nanosplus/release/deps/legder_xelis-53a0edecdc8ef744.legder_xelis.24eea2af218bcfe3-cgu.0.rcgu.o:(.text._ZN4core5array85_$LT$impl$u20$core..ops..index..Index$LT$I$GT$$u20$for$u20$$u5b$T$u3b$$u20$N$u5d$$GT$5index17h11b1e0bd1958d967E)
c0de02f2 c0de02f2        0     1                 $t
c0de02f3 c0de02f3       12     1                 core::array::_$LT$impl$u20$core..ops..index..Index$LT$I$GT$$u20$for$u20$$u5b$T$u3b$$u20$N$u5d$$GT$::index::h11b1e0bd1958d967
c0de0304 c0de0304        e     2         /app/target/nanosplus/release/deps/legder_xelis-53a0edecdc8ef744.legder_xelis.24eea2af218bcfe3-cgu.0.rcgu.o:(.text._ZN4core5array88_$LT$impl$u20$core..ops..index..IndexMut$LT$I$GT$$u20$for$u20$$u5b$T$u3b$$u20$N$u5d$$GT$9index_mut17hc20ecba8fc4bc700E)
c0de0304 c0de0304        0     1                 $t
c0de0305 c0de0305        e     1                 core::array::_$LT$impl$u20$core..ops..index..IndexMut$LT$I$GT$$u20$for$u20$$u5b$T$u3b$$u20$N$u5d$$GT$::index_mut::hc20ecba8fc4bc700
c0de0312 c0de0312       10     2         /app/target/nanosplus/release/deps/legder_xelis-53a0edecdc8ef744.legder_xelis.24eea2af218bcfe3-cgu.0.rcgu.o:(.text._ZN4core5array88_$LT$impl$u20$core..ops..index..IndexMut$LT$I$GT$$u20$for$u20$$u5b$T$u3b$$u20$N$u5d$$GT$9index_mut17hf60ecbb0dbc669d2E)
c0de0312 c0de0312        0     1                 $t
c0de0313 c0de0313       10     1                 core::array::_$LT$impl$u20$core..ops..index..IndexMut$LT$I$GT$$u20$for$u20$$u5b$T$u3b$$u20$N$u5d$$GT$::index_mut::hf60ecbb0dbc669d2
c0de0322 c0de0322       62     2         /app/target/nanosplus/release/deps/legder_xelis-53a0edecdc8ef744.legder_xelis.24eea2af218bcfe3-cgu.0.rcgu.o:(.text._ZN4core5slice29_$LT$impl$u20$$u5b$T$u5d$$GT$7reverse17h4a08f924e0392fa7E)
c0de0322 c0de0322        0     1                 $t
c0de0323 c0de0323       62     1                 core::slice::_$LT$impl$u20$$u5b$T$u5d$$GT$::reverse::h4a08f924e0392fa7
c0de0384 c0de0384       20     4         /app/target/nanosplus/release/deps/legder_xelis-53a0edecdc8ef744.legder_xelis.24eea2af218bcfe3-cgu.0.rcgu.o:(.text._ZN4core6result19Result$LT$T$C$E$GT$6expect17h203bf820ca559b3cE)
c0de0384 c0de0384        0     1                 $t
c0de0385 c0de0385       20     1                 core::result::Result$LT$T$C$E$GT$::expect::h203bf820ca559b3c
c0de039c c0de039c        0     1                 $d
c0de03a4 c0de03a4       36     2         /app/target/nanosplus/release/deps/legder_xelis-53a0edecdc8ef744.legder_xelis.24eea2af218bcfe3-cgu.0.rcgu.o:(.text._ZN52_$LT$char$u20$as$u20$core..str..pattern..Pattern$GT$13into_searcher17he79afdc43853ffafE)
c0de03a4 c0de03a4        0     1                 $t
c0de03a5 c0de03a5       36     1                 _$LT$char$u20$as$u20$core..str..pattern..Pattern$GT$::into_searcher::he79afdc43853ffaf
c0de03dc c0de03dc       b0     4         /app/target/nanosplus/release/deps/legder_xelis-53a0edecdc8ef744.legder_xelis.24eea2af218bcfe3-cgu.0.rcgu.o:(.text._ZN53_$LT$T$u20$as$u20$core..convert..TryInto$LT$U$GT$$GT$8try_into17he80af0ace2b6b2e4E)
c0de03dc c0de03dc        0     1                 $t
c0de03dd c0de03dd       b0     1                 _$LT$T$u20$as$u20$core..convert..TryInto$LT$U$GT$$GT$::try_into::he80af0ace2b6b2e4
c0de0484 c0de0484        0     1                 $d
c0de048c c0de048c       14     4         /app/target/nanosplus/release/deps/legder_xelis-53a0edecdc8ef744.legder_xelis.24eea2af218bcfe3-cgu.0.rcgu.o:(.text._ZN53_$LT$core..fmt..Error$u20$as$u20$core..fmt..Debug$GT$3fmt17h001ea8bfe78df64fE)
c0de048c c0de048c        0     1                 $t
c0de048d c0de048d       14     1                 _$LT$core..fmt..Error$u20$as$u20$core..fmt..Debug$GT$::fmt::h001ea8bfe78df64f
c0de049c c0de049c        0     1                 $d
c0de04a0 c0de04a0       4c     2         /app/target/nanosplus/release/deps/legder_xelis-53a0edecdc8ef744.legder_xelis.24eea2af218bcfe3-cgu.0.rcgu.o:(.text._ZN58_$LT$alloc..string..String$u20$as$u20$core..fmt..Write$GT$10write_char17h54e22f85b9b75498E)
c0de04a0 c0de04a0        0     1                 $t
c0de04a1 c0de04a1       4c     1                 _$LT$alloc..string..String$u20$as$u20$core..fmt..Write$GT$::write_char::h54e22f85b9b75498
c0de04ec c0de04ec        e     2         /app/target/nanosplus/release/deps/legder_xelis-53a0edecdc8ef744.legder_xelis.24eea2af218bcfe3-cgu.0.rcgu.o:(.text._ZN58_$LT$alloc..string..String$u20$as$u20$core..fmt..Write$GT$9write_str17heb4cb39d5114e6e5E)
c0de04ec c0de04ec        0     1                 $t
c0de04ed c0de04ed        e     1                 _$LT$alloc..string..String$u20$as$u20$core..fmt..Write$GT$::write_str::heb4cb39d5114e6e5
c0de04fc c0de04fc       9c     4         /app/target/nanosplus/release/deps/legder_xelis-53a0edecdc8ef744.legder_xelis.24eea2af218bcfe3-cgu.0.rcgu.o:(.text._ZN5alloc3fmt6format17h63be608864c56853E)
c0de04fc c0de04fc        0     1                 $t
c0de04fd c0de04fd       9c     1                 alloc::fmt::format::h63be608864c56853
c0de0590 c0de0590        0     1                 $d
c0de0598 c0de0598       32     2         /app/target/nanosplus/release/deps/legder_xelis-53a0edecdc8ef744.legder_xelis.24eea2af218bcfe3-cgu.0.rcgu.o:(.text._ZN5alloc3vec16Vec$LT$T$C$A$GT$4push17h1c7a2ee835567ae5E)
c0de0598 c0de0598        0     1                 $t
c0de0599 c0de0599       32     1                 alloc::vec::Vec$LT$T$C$A$GT$::push::h1c7a2ee835567ae5
c0de05ca c0de05ca        8     2         /app/target/nanosplus/release/deps/legder_xelis-53a0edecdc8ef744.legder_xelis.24eea2af218bcfe3-cgu.0.rcgu.o:(.text._ZN5alloc7raw_vec19RawVec$LT$T$C$A$GT$8grow_one17h836a07c566d599b1E)
c0de05ca c0de05ca        0     1                 $t
c0de05cb c0de05cb        8     1                 alloc::raw_vec::RawVec$LT$T$C$A$GT$::grow_one::h836a07c566d599b1
c0de05d2 c0de05d2        8     2         /app/target/nanosplus/release/deps/legder_xelis-53a0edecdc8ef744.legder_xelis.24eea2af218bcfe3-cgu.0.rcgu.o:(.text._ZN5alloc7raw_vec19RawVec$LT$T$C$A$GT$8grow_one17hc395329555a066c3E)
c0de05d2 c0de05d2        0     1                 $t
c0de05d3 c0de05d3        8     1                 alloc::raw_vec::RawVec$LT$T$C$A$GT$::grow_one::hc395329555a066c3
c0de05dc c0de05dc       14     4         /app/target/nanosplus/release/deps/legder_xelis-53a0edecdc8ef744.legder_xelis.24eea2af218bcfe3-cgu.0.rcgu.o:(.text._ZN5alloc7raw_vec19RawVec$LT$T$C$A$GT$8grow_one17hd62f64171f82e1c0E)
c0de05dc c0de05dc        0     1                 $t
c0de05dd c0de05dd       14     1                 alloc::raw_vec::RawVec$LT$T$C$A$GT$::grow_one::hd62f64171f82e1c0
c0de05ec c0de05ec        0     1                 $d
c0de05f0 c0de05f0       22     2         /app/target/nanosplus/release/deps/legder_xelis-53a0edecdc8ef744.legder_xelis.24eea2af218bcfe3-cgu.0.rcgu.o:(.text._ZN5alloc7raw_vec20RawVecInner$LT$A$GT$16with_capacity_in17hec46672469db15cfE)
c0de05f0 c0de05f0        0     1                 $t
c0de05f1 c0de05f1       22     1                 alloc::raw_vec::RawVecInner$LT$A$GT$::with_capacity_in::hec46672469db15cf
c0de0612 c0de0612       24     2         /app/target/nanosplus/release/deps/legder_xelis-53a0edecdc8ef744.legder_xelis.24eea2af218bcfe3-cgu.0.rcgu.o:(.text._ZN5alloc7raw_vec20RawVecInner$LT$A$GT$23with_capacity_zeroed_in17h64ece80fa61b1ba5E)
c0de0612 c0de0612        0     1                 $t
c0de0613 c0de0613       24     1                 alloc::raw_vec::RawVecInner$LT$A$GT$::with_capacity_zeroed_in::h64ece80fa61b1ba5
c0de0636 c0de0636       1c     2         /app/target/nanosplus/release/deps/legder_xelis-53a0edecdc8ef744.legder_xelis.24eea2af218bcfe3-cgu.0.rcgu.o:(.text._ZN5alloc7raw_vec20RawVecInner$LT$A$GT$7reserve17h065cf6b9e1edc08bE)
c0de0636 c0de0636        0     1                 $t
c0de0637 c0de0637       1c     1                 alloc::raw_vec::RawVecInner$LT$A$GT$::reserve::h065cf6b9e1edc08b
c0de0654 c0de0654       20     4         /app/target/nanosplus/release/deps/legder_xelis-53a0edecdc8ef744.legder_xelis.24eea2af218bcfe3-cgu.0.rcgu.o:(.text._ZN5alloc7raw_vec20RawVecInner$LT$A$GT$8grow_one17hd48a5f46380daafaE)
c0de0654 c0de0654        0     1                 $t
c0de0655 c0de0655       20     1                 alloc::raw_vec::RawVecInner$LT$A$GT$::grow_one::hd48a5f46380daafa
c0de0670 c0de0670        0     1                 $d
c0de0674 c0de0674        c     2         /app/target/nanosplus/release/deps/legder_xelis-53a0edecdc8ef744.legder_xelis.24eea2af218bcfe3-cgu.0.rcgu.o:(.text._ZN60_$LT$alloc..string..String$u20$as$u20$core..fmt..Display$GT$3fmt17h78b242d328865670E)
c0de0674 c0de0674        0     1                 $t
c0de0675 c0de0675        c     1                 _$LT$alloc..string..String$u20$as$u20$core..fmt..Display$GT$::fmt::h78b242d328865670
c0de0680 c0de0680       40     4         /app/target/nanosplus/release/deps/legder_xelis-53a0edecdc8ef744.legder_xelis.24eea2af218bcfe3-cgu.0.rcgu.o:(.text._ZN67_$LT$core..array..TryFromSliceError$u20$as$u20$core..fmt..Debug$GT$3fmt17h6745f7e496feee7cE)
c0de0680 c0de0680        0     1                 $t
c0de0681 c0de0681       40     1                 _$LT$core..array..TryFromSliceError$u20$as$u20$core..fmt..Debug$GT$::fmt::h6745f7e496feee7c
c0de06b8 c0de06b8        0     1                 $d
c0de06c0 c0de06c0       24     4         /app/target/nanosplus/release/deps/legder_xelis-53a0edecdc8ef744.legder_xelis.24eea2af218bcfe3-cgu.0.rcgu.o:(.text._ZN81_$LT$alloc..vec..Vec$LT$T$C$A$GT$$u20$as$u20$core..ops..index..Index$LT$I$GT$$GT$5index17h50a64085f54df945E)
c0de06c0 c0de06c0        0     1                 $t
c0de06c1 c0de06c1       24     1                 _$LT$alloc..vec..Vec$LT$T$C$A$GT$$u20$as$u20$core..ops..index..Index$LT$I$GT$$GT$::index::h50a64085f54df945
c0de06e0 c0de06e0        0     1                 $d
c0de06e4 c0de06e4       14     2         /app/target/nanosplus/release/deps/legder_xelis-53a0edecdc8ef744.legder_xelis.24eea2af218bcfe3-cgu.0.rcgu.o:(.text._ZN81_$LT$alloc..vec..Vec$LT$T$C$A$GT$$u20$as$u20$core..ops..index..Index$LT$I$GT$$GT$5index17hd5f934cd8db861beE)
c0de06e4 c0de06e4        0     1                 $t
c0de06e5 c0de06e5       14     1                 _$LT$alloc..vec..Vec$LT$T$C$A$GT$$u20$as$u20$core..ops..index..Index$LT$I$GT$$GT$::index::hd5f934cd8db861be
c0de06f8 c0de06f8       c4     2         /app/target/nanosplus/release/deps/legder_xelis-53a0edecdc8ef744.legder_xelis.24eea2af218bcfe3-cgu.0.rcgu.o:(.text._ZN81_$LT$core..str..pattern..CharSearcher$u20$as$u20$core..str..pattern..Searcher$GT$10next_match17hffa8ba89a8328c8fE)
c0de06f8 c0de06f8        0     1                 $t
c0de06f9 c0de06f9       c4     1                 _$LT$core..str..pattern..CharSearcher$u20$as$u20$core..str..pattern..Searcher$GT$::next_match::hffa8ba89a8328c8f
c0de07bc c0de07bc       14     2         /app/target/nanosplus/release/deps/legder_xelis-53a0edecdc8ef744.legder_xelis.24eea2af218bcfe3-cgu.0.rcgu.o:(.text._ZN84_$LT$alloc..vec..Vec$LT$T$C$A$GT$$u20$as$u20$core..ops..index..IndexMut$LT$I$GT$$GT$9index_mut17h61d3dfb1e543bdeeE)
c0de07bc c0de07bc        0     1                 $t
c0de07bd c0de07bd       14     1                 _$LT$alloc..vec..Vec$LT$T$C$A$GT$$u20$as$u20$core..ops..index..IndexMut$LT$I$GT$$GT$::index_mut::h61d3dfb1e543bdee
c0de07d0 c0de07d0        a     2         /app/target/nanosplus/release/deps/legder_xelis-53a0edecdc8ef744.legder_xelis.24eea2af218bcfe3-cgu.0.rcgu.o:(.text._ZN84_$LT$alloc..vec..Vec$LT$T$C$A$GT$$u20$as$u20$core..ops..index..IndexMut$LT$I$GT$$GT$9index_mut17hb5ca6f096cbeb58cE)
c0de07d0 c0de07d0        0     1                 $t
c0de07d1 c0de07d1        a     1                 _$LT$alloc..vec..Vec$LT$T$C$A$GT$$u20$as$u20$core..ops..index..IndexMut$LT$I$GT$$GT$::index_mut::hb5ca6f096cbeb58c
c0de07da c0de07da       5a     2         /app/target/nanosplus/release/deps/legder_xelis-53a0edecdc8ef744.legder_xelis.24eea2af218bcfe3-cgu.0.rcgu.o:(.text._ZN90_$LT$core..str..iter..Split$LT$P$GT$$u20$as$u20$core..iter..traits..iterator..Iterator$GT$4next17hdcf7cf4a2c3f98f6E)
c0de07da c0de07da        0     1                 $t
c0de07db c0de07db       5a     1                 _$LT$core..str..iter..Split$LT$P$GT$$u20$as$u20$core..iter..traits..iterator..Iterator$GT$::next::hdcf7cf4a2c3f98f6
c0de0834 c0de0834       24     2         /app/target/nanosplus/release/deps/legder_xelis-53a0edecdc8ef744.legder_xelis.24eea2af218bcfe3-cgu.0.rcgu.o:(.text._ZN91_$LT$core..slice..iter..Iter$LT$T$GT$$u20$as$u20$core..iter..traits..iterator..Iterator$GT$3all17hbfe0df9bb05a929cE)
c0de0834 c0de0834        0     1                 $t
c0de0835 c0de0835       24     1                 _$LT$core..slice..iter..Iter$LT$T$GT$$u20$as$u20$core..iter..traits..iterator..Iterator$GT$::all::hbfe0df9bb05a929c
c0de0858 c0de0858      1fc     4         /app/target/nanosplus/release/deps/legder_xelis-53a0edecdc8ef744.legder_xelis.24eea2af218bcfe3-cgu.0.rcgu.o:(.text._ZN12legder_xelis6crypto7address7Address8to_bytes17h8fa55f66ee008f81E)
c0de0858 c0de0858        0     1                 $t
c0de0859 c0de0859      1fc     1                 legder_xelis::crypto::address::Address::to_bytes::h8fa55f66ee008f81
c0de0a44 c0de0a44        0     1                 $d
c0de0a54 c0de0a54       40     4         /app/target/nanosplus/release/deps/legder_xelis-53a0edecdc8ef744.legder_xelis.24eea2af218bcfe3-cgu.0.rcgu.o:(.text._ZN12legder_xelis6crypto7address12polymod_step17h814c2effa4d0d53bE)
c0de0a54 c0de0a54        0     1                 $t
c0de0a55 c0de0a55       40     1                 legder_xelis::crypto::address::polymod_step::h814c2effa4d0d53b
c0de0a8c c0de0a8c        0     1                 $d
c0de0a94 c0de0a94      3f0     4         /app/target/nanosplus/release/deps/legder_xelis-53a0edecdc8ef744.legder_xelis.24eea2af218bcfe3-cgu.0.rcgu.o:(.text._ZN12legder_xelis6crypto7address19format_address_safe17h9d82f972eb17084bE)
c0de0a94 c0de0a94        0     1                 $t
c0de0a95 c0de0a95      3f0     1                 legder_xelis::crypto::address::format_address_safe::h9d82f972eb17084b
c0de0e4c c0de0e4c        0     1                 $d
c0de0e84 c0de0e84       24     2         /app/target/nanosplus/release/deps/legder_xelis-53a0edecdc8ef744.legder_xelis.24eea2af218bcfe3-cgu.0.rcgu.o:(.text._ZN12legder_xelis6crypto9ristretto19CompressedRistretto11to_le_bytes17hbcfc542a5ba59e06E)
c0de0e84 c0de0e84        0     1                 $t
c0de0e85 c0de0e85       24     1                 legder_xelis::crypto::ristretto::CompressedRistretto::to_le_bytes::hbcfc542a5ba59e06
c0de0ea8 c0de0ea8       20     4         /app/target/nanosplus/release/deps/legder_xelis-53a0edecdc8ef744.legder_xelis.24eea2af218bcfe3-cgu.0.rcgu.o:(.text._ZN12legder_xelis6crypto9ristretto11fe25519_mul17h320d862f2e407a01E)
c0de0ea8 c0de0ea8        0     1                 $t
c0de0ea9 c0de0ea9       20     1                 legder_xelis::crypto::ristretto::fe25519_mul::h320d862f2e407a01
c0de0ec4 c0de0ec4        0     1                 $d
c0de0ec8 c0de0ec8       20     4         /app/target/nanosplus/release/deps/legder_xelis-53a0edecdc8ef744.legder_xelis.24eea2af218bcfe3-cgu.0.rcgu.o:(.text._ZN12legder_xelis6crypto9ristretto11fe25519_add17hdee45e1364b7c0e6E)
c0de0ec8 c0de0ec8        0     1                 $t
c0de0ec9 c0de0ec9       20     1                 legder_xelis::crypto::ristretto::fe25519_add::hdee45e1364b7c0e6
c0de0ee4 c0de0ee4        0     1                 $d
c0de0ee8 c0de0ee8       20     4         /app/target/nanosplus/release/deps/legder_xelis-53a0edecdc8ef744.legder_xelis.24eea2af218bcfe3-cgu.0.rcgu.o:(.text._ZN12legder_xelis6crypto9ristretto11fe25519_sub17h2c33ab69e67ecab7E)
c0de0ee8 c0de0ee8        0     1                 $t
c0de0ee9 c0de0ee9       20     1                 legder_xelis::crypto::ristretto::fe25519_sub::h2c33ab69e67ecab7
c0de0f04 c0de0f04        0     1                 $d
c0de0f08 c0de0f08       24     4         /app/target/nanosplus/release/deps/legder_xelis-53a0edecdc8ef744.legder_xelis.24eea2af218bcfe3-cgu.0.rcgu.o:(.text._ZN12legder_xelis6crypto9ristretto11fe25519_neg17h7ff8adee3d7e32d1E)
c0de0f08 c0de0f08        0     1                 $t
c0de0f09 c0de0f09       24     1                 legder_xelis::crypto::ristretto::fe25519_neg::h7ff8adee3d7e32d1
c0de0f28 c0de0f28        0     1                 $d
c0de0f2c c0de0f2c      404     4         /app/target/nanosplus/release/deps/legder_xelis-53a0edecdc8ef744.legder_xelis.24eea2af218bcfe3-cgu.0.rcgu.o:(.text._ZN12legder_xelis6crypto9ristretto14RistrettoPoint8compress17h5d254482cdbc76fcE)
c0de0f2c c0de0f2c        0     1                 $t
c0de0f2d c0de0f2d      404     1                 legder_xelis::crypto::ristretto::RistrettoPoint::compress::h5d254482cdbc76fc
c0de130c c0de130c        0     1                 $d
c0de1330 c0de1330       d0     4         /app/target/nanosplus/release/deps/legder_xelis-53a0edecdc8ef744.legder_xelis.24eea2af218bcfe3-cgu.0.rcgu.o:(.text._ZN12legder_xelis6crypto9ristretto21scalar_mult_ristretto17ha7234f330d8837fdE)
c0de1330 c0de1330        0     1                 $t
c0de1331 c0de1331       d0     1                 legder_xelis::crypto::ristretto::scalar_mult_ristretto::ha7234f330d8837fd
c0de13fc c0de13fc        0     1                 $d
c0de1400 c0de1400      200     4         /app/target/nanosplus/release/deps/legder_xelis-53a0edecdc8ef744.legder_xelis.24eea2af218bcfe3-cgu.0.rcgu.o:(.text._ZN12legder_xelis6crypto9ristretto11edwards_add17h128f4b4bb68a1e0fE)
c0de1400 c0de1400        0     1                 $t
c0de1401 c0de1401      200     1                 legder_xelis::crypto::ristretto::edwards_add::h128f4b4bb68a1e0f
c0de15fc c0de15fc        0     1                 $d
c0de1600 c0de1600       b8     4         /app/target/nanosplus/release/deps/legder_xelis-53a0edecdc8ef744.legder_xelis.24eea2af218bcfe3-cgu.0.rcgu.o:(.text._ZN12legder_xelis6crypto9ristretto25xelis_public_from_private17h6d7b7d5b190ef03dE)
c0de1600 c0de1600        0     1                 $t
c0de1601 c0de1601       b8     1                 legder_xelis::crypto::ristretto::xelis_public_from_private::h6d7b7d5b190ef03d
c0de16b4 c0de16b4        0     1                 $d
c0de16b8 c0de16b8       1c     2         /app/target/nanosplus/release/deps/legder_xelis-53a0edecdc8ef744.legder_xelis.24eea2af218bcfe3-cgu.0.rcgu.o:(.text._ZN12legder_xelis6crypto6scalar7is_zero17had06e2df0a105efcE)
c0de16b8 c0de16b8        0     1                 $t
c0de16b9 c0de16b9       1c     1                 legder_xelis::crypto::scalar::is_zero::had06e2df0a105efc
c0de16d4 c0de16d4       64     4         /app/target/nanosplus/release/deps/legder_xelis-53a0edecdc8ef744.legder_xelis.24eea2af218bcfe3-cgu.0.rcgu.o:(.text._ZN12legder_xelis6crypto6scalar13scalar_invert17h2a85986a077f9372E)
c0de16d4 c0de16d4        0     1                 $t
c0de16d5 c0de16d5       64     1                 legder_xelis::crypto::scalar::scalar_invert::h2a85986a077f9372
c0de172c c0de172c        0     1                 $d
c0de1738 c0de1738       1c     2         /app/target/nanosplus/release/deps/legder_xelis-53a0edecdc8ef744.legder_xelis.24eea2af218bcfe3-cgu.0.rcgu.o:(.text._ZN12legder_xelis6crypto6secure23SensitiveBytes$LT$_$GT$15copy_from_slice17hbb2ea38c76156cabE)
c0de1738 c0de1738        0     1                 $t
c0de1739 c0de1739       1c     1                 legder_xelis::crypto::secure::SensitiveBytes$LT$_$GT$::copy_from_slice::hbb2ea38c76156cab
c0de1754 c0de1754        6     2         /app/target/nanosplus/release/deps/legder_xelis-53a0edecdc8ef744.legder_xelis.24eea2af218bcfe3-cgu.0.rcgu.o:(.text._ZN95_$LT$legder_xelis..crypto..secure..SensitiveBytes$LT$_$GT$$u20$as$u20$core..ops..drop..Drop$GT$4drop17h823b72db9f0e8515E)
c0de1754 c0de1754        0     1                 $t
c0de1755 c0de1755        6     1                 _$LT$legder_xelis..crypto..secure..SensitiveBytes$LT$_$GT$$u20$as$u20$core..ops..drop..Drop$GT$::drop::h823b72db9f0e8515
c0de175a c0de175a        6     2         /app/target/nanosplus/release/deps/legder_xelis-53a0edecdc8ef744.legder_xelis.24eea2af218bcfe3-cgu.0.rcgu.o:(.text._ZN95_$LT$legder_xelis..crypto..secure..SensitiveBytes$LT$_$GT$$u20$as$u20$core..ops..drop..Drop$GT$4drop17hc38014b3a4dcb853E)
c0de175a c0de175a        0     1                 $t
c0de175b c0de175b        6     1                 _$LT$legder_xelis..crypto..secure..SensitiveBytes$LT$_$GT$$u20$as$u20$core..ops..drop..Drop$GT$::drop::hc38014b3a4dcb853
c0de1760 c0de1760        e     2         /app/target/nanosplus/release/deps/legder_xelis-53a0edecdc8ef744.legder_xelis.24eea2af218bcfe3-cgu.0.rcgu.o:(.text._ZN12legder_xelis6crypto6secure11secure_wipe17hee456566634868e3E)
c0de1760 c0de1760        0     1                 $t
c0de1761 c0de1761        e     1                 legder_xelis::crypto::secure::secure_wipe::hee456566634868e3
c0de176e c0de176e       66     2         /app/target/nanosplus/release/deps/legder_xelis-53a0edecdc8ef744.legder_xelis.24eea2af218bcfe3-cgu.0.rcgu.o:(.text._ZN12legder_xelis6crypto3sha4sha38sha3_51217hf4ad30e67c2a5408E)
c0de176e c0de176e        0     1                 $t
c0de176f c0de176f       66     1                 legder_xelis::crypto::sha::sha3::sha3_512::hf4ad30e67c2a5408
c0de17d4 c0de17d4       48     4         /app/target/nanosplus/release/deps/legder_xelis-53a0edecdc8ef744.legder_xelis.24eea2af218bcfe3-cgu.0.rcgu.o:(.text._ZN12legder_xelis6crypto9signature26reduce_mod_l_wide_le_to_be17h5a926759bff8bc1eE)
c0de17d4 c0de17d4        0     1                 $t
c0de17d5 c0de17d5       48     1                 legder_xelis::crypto::signature::reduce_mod_l_wide_le_to_be::h5a926759bff8bc1e
c0de1818 c0de1818        0     1                 $d
c0de181c c0de181c       70     4         /app/target/nanosplus/release/deps/legder_xelis-53a0edecdc8ef744.legder_xelis.24eea2af218bcfe3-cgu.0.rcgu.o:(.text._ZN12legder_xelis5utils13to_hex_string17h1c68428b40059386E)
c0de181c c0de181c        0     1                 $t
c0de181d c0de181d       70     1                 legder_xelis::utils::to_hex_string::h1c68428b40059386
c0de1888 c0de1888        0     1                 $d
c0de188c c0de188c       28     4         /app/target/nanosplus/release/deps/legder_xelis-53a0edecdc8ef744.legder_xelis.24eea2af218bcfe3-cgu.0.rcgu.o:(.text._ZN12legder_xelis3xlb11memo_ws_mut17h4732ab960eeb0426E)
c0de188c c0de188c        0     1                 $t
c0de188d c0de188d       28     1                 legder_xelis::xlb::memo_ws_mut::h4732ab960eeb0426
c0de18b0 c0de18b0        0     1                 $d
c0de18b4 c0de18b4       64     4         /app/target/nanosplus/release/deps/legder_xelis-53a0edecdc8ef744.legder_xelis.24eea2af218bcfe3-cgu.0.rcgu.o:(.text._ZN12legder_xelis3xlb11read_leb12817h6bea377bba4674d9E)
c0de18b4 c0de18b4        0     1                 $t
c0de18b5 c0de18b5       64     1                 legder_xelis::xlb::read_leb128::h6bea377bba4674d9
c0de1914 c0de1914        0     1                 $d
c0de1918 c0de1918       a8     4         /app/target/nanosplus/release/deps/legder_xelis-53a0edecdc8ef744.legder_xelis.24eea2af218bcfe3-cgu.0.rcgu.o:(.text._ZN12legder_xelis6app_ui4sign13format_amount17hbea2e4f2daf97837E)
c0de1918 c0de1918        0     1                 $t
c0de1919 c0de1919       a8     1                 legder_xelis::app_ui::sign::format_amount::hbea2e4f2daf97837
c0de19b0 c0de19b0        0     1                 $d
c0de19c0 c0de19c0       64     2         /app/target/nanosplus/release/deps/legder_xelis-53a0edecdc8ef744.legder_xelis.24eea2af218bcfe3-cgu.0.rcgu.o:(.text._ZN12legder_xelis8handlers7sign_tx9TxContext5reset17h3a74307600c1a930E)
c0de19c0 c0de19c0        0     1                 $t
c0de19c1 c0de19c1       64     1                 legder_xelis::handlers::sign_tx::TxContext::reset::h3a74307600c1a930
c0de1a24 c0de1a24       24     4         /app/target/nanosplus/release/deps/legder_xelis-53a0edecdc8ef744.legder_xelis.24eea2af218bcfe3-cgu.0.rcgu.o:(.text._ZN12legder_xelis8settings8Settings7get_mut17h92553feef478df5cE)
c0de1a24 c0de1a24        0     1                 $t
c0de1a25 c0de1a25       24     1                 legder_xelis::settings::Settings::get_mut::h92553feef478df5c
c0de1a40 c0de1a40        0     1                 $d
c0de1a48 c0de1a48     25f0     4         /app/target/nanosplus/release/deps/legder_xelis-53a0edecdc8ef744.legder_xelis.24eea2af218bcfe3-cgu.0.rcgu.o:(.text.sample_main)
c0de1a48 c0de1a48        0     1                 $t
c0de1a49 c0de1a49     25f0     1                 sample_main
c0de1ec4 c0de1ec4        0     1                 $d
c0de1ef0 c0de1ef0        0     1                 $t
c0de1f3a c0de1f3a        0     1                 $d
c0de1f3e c0de1f3e        0     1                 $t
c0de202c c0de202c        0     1                 $d
c0de2030 c0de2030        0     1                 $t
c0de20ba c0de20ba        0     1                 $d
c0de20c0 c0de20c0        0     1                 $t
c0de2448 c0de2448        0     1                 $d
c0de2458 c0de2458        0     1                 $t
c0de266c c0de266c        0     1                 $d
c0de2670 c0de2670        0     1                 $t
c0de294c c0de294c        0     1                 $d
c0de2958 c0de2958        0     1                 $t
c0de29f8 c0de29f8        0     1                 $d
c0de29fc c0de29fc        0     1                 $t
c0de2ba2 c0de2ba2        0     1                 $d
c0de2bac c0de2bac        0     1                 $t
c0de2f04 c0de2f04        0     1                 $d
c0de2f50 c0de2f50        0     1                 $t
c0de3380 c0de3380        0     1                 $d
c0de339c c0de339c        0     1                 $t
c0de380a c0de380a        0     1                 $d
c0de380e c0de380e        0     1                 $t
c0de3a48 c0de3a48        0     1                 $d
c0de3a54 c0de3a54        0     1                 $t
c0de3ff8 c0de3ff8        0     1                 $d
c0de4038 c0de4038        8     2         /app/target/nanosplus/release/deps/legder_xelis-53a0edecdc8ef744.legder_xelis.24eea2af218bcfe3-cgu.0.rcgu.o:(.text.rust_begin_unwind)
c0de4038 c0de4038        0     1                 $t
c0de4039 c0de4039        8     1                 rust_begin_unwind
c0de4040 c0de4040        4     2         /app/target/nanosplus/release/deps/legder_xelis-53a0edecdc8ef744.legder_xelis.24eea2af218bcfe3-cgu.0.rcgu.o:(.text.__rust_alloc_error_handler)
c0de4040 c0de4040        0     1                 $t
c0de4041 c0de4041        4     1                 __rust_alloc_error_handler
c0de4044 c0de4044       28     2         /app/target/nanosplus/release/deps/legder_xelis-53a0edecdc8ef744.legder_xelis.24eea2af218bcfe3-cgu.0.rcgu.o:(.text._ZN5alloc3vec16Vec$LT$T$C$A$GT$4push17h81fad76c68e1062aE)
c0de4044 c0de4044        0     1                 $t
c0de4045 c0de4045       28     1                 alloc::vec::Vec$LT$T$C$A$GT$::push::h81fad76c68e1062a
c0de406c c0de406c       46     2         /app/target/nanosplus/release/deps/legder_xelis-53a0edecdc8ef744.legder_xelis.24eea2af218bcfe3-cgu.0.rcgu.o:(.text._ZN132_$LT$alloc..vec..Vec$LT$T$C$A$GT$$u20$as$u20$alloc..vec..spec_extend..SpecExtend$LT$$RF$T$C$core..slice..iter..Iter$LT$T$GT$$GT$$GT$11spec_extend17h291ec4a92d8b1fc3E)
c0de406c c0de406c        0     1                 $t
c0de406d c0de406d       46     1                 _$LT$alloc..vec..Vec$LT$T$C$A$GT$$u20$as$u20$alloc..vec..spec_extend..SpecExtend$LT$$RF$T$C$core..slice..iter..Iter$LT$T$GT$$GT$$GT$::spec_extend::h291ec4a92d8b1fc3
c0de40b4 c0de40b4       1c     4         /app/target/nanosplus/release/deps/legder_xelis-53a0edecdc8ef744.legder_xelis.24eea2af218bcfe3-cgu.0.rcgu.o:(.text.unlikely._ZN5alloc7raw_vec20RawVecInner$LT$A$GT$7reserve21do_reserve_and_handle17hbd53bfc4dac0369dE)
c0de40b4 c0de40b4        0     1                 $t
c0de40b5 c0de40b5       1c     1                 alloc::raw_vec::RawVecInner$LT$A$GT$::reserve::do_reserve_and_handle::hbd53bfc4dac0369d
c0de40cc c0de40cc        0     1                 $d
c0de40d0 c0de40d0       94     4         /app/target/nanosplus/release/deps/legder_xelis-53a0edecdc8ef744.legder_xelis.24eea2af218bcfe3-cgu.0.rcgu.o:(.text._ZN5alloc7raw_vec20RawVecInner$LT$A$GT$14grow_amortized17h51d7e6154e21cc47E)
c0de40d0 c0de40d0        0     1                 $t
c0de40d1 c0de40d1       94     1                 alloc::raw_vec::RawVecInner$LT$A$GT$::grow_amortized::h51d7e6154e21cc47
c0de4160 c0de4160        0     1                 $d
c0de4164 c0de4164       10     2         /app/target/nanosplus/release/deps/legder_xelis-53a0edecdc8ef744.legder_xelis.24eea2af218bcfe3-cgu.0.rcgu.o:(.text.unlikely._ZN5alloc7raw_vec12handle_error17hc7fdd822ef9ed6cbE)
c0de4164 c0de4164        0     1                 $t
c0de4165 c0de4165       10     1                 alloc::raw_vec::handle_error::hc7fdd822ef9ed6cb
c0de4174 c0de4174        8     2         /app/target/nanosplus/release/deps/legder_xelis-53a0edecdc8ef744.legder_xelis.24eea2af218bcfe3-cgu.0.rcgu.o:(.text._ZN5alloc7raw_vec17capacity_overflow17h882466dfad2cd630E)
c0de4174 c0de4174        0     1                 $t
c0de4175 c0de4175        8     1                 alloc::raw_vec::capacity_overflow::h882466dfad2cd630
c0de417c c0de417c        8     2         /app/target/nanosplus/release/deps/legder_xelis-53a0edecdc8ef744.legder_xelis.24eea2af218bcfe3-cgu.0.rcgu.o:(.text.unlikely._ZN5alloc5alloc18handle_alloc_error17hd4ed90cbd42cc1c2E)
c0de417c c0de417c        0     1                 $t
c0de417d c0de417d        8     1                 alloc::alloc::handle_alloc_error::hd4ed90cbd42cc1c2
c0de4184 c0de4184        8     2         /app/target/nanosplus/release/deps/legder_xelis-53a0edecdc8ef744.legder_xelis.24eea2af218bcfe3-cgu.0.rcgu.o:(.text._ZN5alloc5alloc18handle_alloc_error8rt_error17h9f9682acc5a52fb0E)
c0de4184 c0de4184        0     1                 $t
c0de4185 c0de4185        8     1                 alloc::alloc::handle_alloc_error::rt_error::h9f9682acc5a52fb0
c0de418c c0de418c       58     2         /app/target/nanosplus/release/deps/legder_xelis-53a0edecdc8ef744.legder_xelis.24eea2af218bcfe3-cgu.0.rcgu.o:(.text.unlikely._ZN5alloc7raw_vec11finish_grow17h1bae8b109ac631edE)
c0de418c c0de418c        0     1                 $t
c0de418d c0de418d       58     1                 alloc::raw_vec::finish_grow::h1bae8b109ac631ed
c0de41e4 c0de41e4       40     4         /app/target/nanosplus/release/deps/legder_xelis-53a0edecdc8ef744.legder_xelis.24eea2af218bcfe3-cgu.0.rcgu.o:(.text._ZN5alloc5alloc6Global10alloc_impl17hea64d796aae0eacbE)
c0de41e4 c0de41e4        0     1                 $t
c0de41e5 c0de41e5       40     1                 alloc::alloc::Global::alloc_impl::hea64d796aae0eacb
c0de4220 c0de4220        0     1                 $d
c0de4224 c0de4224        6     2         /app/target/nanosplus/release/deps/legder_xelis-53a0edecdc8ef744.legder_xelis.24eea2af218bcfe3-cgu.0.rcgu.o:(.text._ZN63_$LT$alloc..alloc..Global$u20$as$u20$core..alloc..Allocator$GT$8allocate17he9c12d751ea52f53E)
c0de4224 c0de4224        0     1                 $t
c0de4225 c0de4225        6     1                 _$LT$alloc..alloc..Global$u20$as$u20$core..alloc..Allocator$GT$::allocate::he9c12d751ea52f53
c0de422c c0de422c       20     4         /app/target/nanosplus/release/deps/legder_xelis-53a0edecdc8ef744.legder_xelis.24eea2af218bcfe3-cgu.0.rcgu.o:(.text._ZN5alloc7raw_vec19RawVec$LT$T$C$A$GT$8grow_one17h9d8179aeec86b2e6E)
c0de422c c0de422c        0     1                 $t
c0de422d c0de422d       20     1                 alloc::raw_vec::RawVec$LT$T$C$A$GT$::grow_one::h9d8179aeec86b2e6
c0de4248 c0de4248        0     1                 $d
c0de424c c0de424c       14     4         /app/target/nanosplus/release/deps/legder_xelis-53a0edecdc8ef744.legder_xelis.24eea2af218bcfe3-cgu.0.rcgu.o:(.text._ZN4core3fmt5Write9write_fmt17hd85b6fa056ecdbe8E)
c0de424c c0de424c        0     1                 $t
c0de424d c0de424d       14     1                 core::fmt::Write::write_fmt::hd85b6fa056ecdbe8
c0de425c c0de425c        0     1                 $d
c0de4260 c0de4260       84     2         /app/target/nanosplus/release/deps/legder_xelis-53a0edecdc8ef744.legder_xelis.24eea2af218bcfe3-cgu.0.rcgu.o:(.text._ZN58_$LT$alloc..string..String$u20$as$u20$core..fmt..Write$GT$10write_char17h54e22f85b9b75498E.12)
c0de4260 c0de4260        0     1                 $t
c0de4261 c0de4261       84     1                 _$LT$alloc..string..String$u20$as$u20$core..fmt..Write$GT$::write_char::h54e22f85b9b75498 (.12)
c0de42e4 c0de42e4        8     2         /app/target/nanosplus/release/deps/legder_xelis-53a0edecdc8ef744.legder_xelis.24eea2af218bcfe3-cgu.0.rcgu.o:(.text._ZN77_$LT$alloc..raw_vec..RawVec$LT$T$C$A$GT$$u20$as$u20$core..ops..drop..Drop$GT$4drop17h0abeb57adce07278E)
c0de42e4 c0de42e4        0     1                 $t
c0de42e5 c0de42e5        8     1                 _$LT$alloc..raw_vec..RawVec$LT$T$C$A$GT$$u20$as$u20$core..ops..drop..Drop$GT$::drop::h0abeb57adce07278
c0de42ec c0de42ec       26     2         /app/target/nanosplus/release/deps/legder_xelis-53a0edecdc8ef744.legder_xelis.24eea2af218bcfe3-cgu.0.rcgu.o:(.text._ZN5alloc7raw_vec20RawVecInner$LT$A$GT$10deallocate17h37e47151dd2982d7E)
c0de42ec c0de42ec        0     1                 $t
c0de42ed c0de42ed       26     1                 alloc::raw_vec::RawVecInner$LT$A$GT$::deallocate::h37e47151dd2982d7
c0de4312 c0de4312        8     2         /app/target/nanosplus/release/deps/legder_xelis-53a0edecdc8ef744.legder_xelis.24eea2af218bcfe3-cgu.0.rcgu.o:(.text._ZN63_$LT$alloc..alloc..Global$u20$as$u20$core..alloc..Allocator$GT$10deallocate17h8838a9711ef750adE)
c0de4312 c0de4312        0     1                 $t
c0de4313 c0de4313        8     1                 _$LT$alloc..alloc..Global$u20$as$u20$core..alloc..Allocator$GT$::deallocate::h8838a9711ef750ad
c0de431a c0de431a       60     2         /app/target/nanosplus/release/deps/legder_xelis-53a0edecdc8ef744.legder_xelis.24eea2af218bcfe3-cgu.0.rcgu.o:(.text._ZN5alloc7raw_vec20RawVecInner$LT$A$GT$15try_allocate_in17h7114d0fb80dd1c75E)
c0de431a c0de431a        0     1                 $t
c0de431b c0de431b       60     1                 alloc::raw_vec::RawVecInner$LT$A$GT$::try_allocate_in::h7114d0fb80dd1c75
c0de437a c0de437a        8     2         /app/target/nanosplus/release/deps/legder_xelis-53a0edecdc8ef744.legder_xelis.24eea2af218bcfe3-cgu.0.rcgu.o:(.text.__rdl_oom)
c0de437a c0de437a        0     1                 $t
c0de437b c0de437b        8     1                 __rdl_oom
c0de4382 c0de4382       28     2         /app/target/nanosplus/release/deps/legder_xelis-53a0edecdc8ef744.legder_xelis.24eea2af218bcfe3-cgu.0.rcgu.o:(.text._ZN5alloc3vec16Vec$LT$T$C$A$GT$16with_capacity_in17hc736ede785de68a6E)
c0de4382 c0de4382        0     1                 $t
c0de4383 c0de4383       28     1                 alloc::vec::Vec$LT$T$C$A$GT$::with_capacity_in::hc736ede785de68a6
c0de43ac c0de43ac      100     4         /app/target/nanosplus/release/deps/legder_xelis-53a0edecdc8ef744.legder_xelis.24eea2af218bcfe3-cgu.0.rcgu.o:(.text._ZN72_$LT$$RF$str$u20$as$u20$alloc..ffi..c_str..CString..new..SpecNewImpl$GT$13spec_new_impl17hd2f440c1cd931c23E)
c0de43ac c0de43ac        0     1                 $t
c0de43ad c0de43ad      100     1                 _$LT$$RF$str$u20$as$u20$alloc..ffi..c_str..CString..new..SpecNewImpl$GT$::spec_new_impl::hd2f440c1cd931c23
c0de44a8 c0de44a8        0     1                 $d
c0de44ac c0de44ac       1c     2         /app/target/nanosplus/release/deps/legder_xelis-53a0edecdc8ef744.legder_xelis.24eea2af218bcfe3-cgu.0.rcgu.o:(.text._ZN69_$LT$alloc..ffi..c_str..CString$u20$as$u20$core..default..Default$GT$7default17ha10cd83c3e37cf3dE)
c0de44ac c0de44ac        0     1                 $t
c0de44ad c0de44ad       1c     1                 _$LT$alloc..ffi..c_str..CString$u20$as$u20$core..default..Default$GT$::default::ha10cd83c3e37cf3d
c0de44c8 c0de44c8       34     2         /app/target/nanosplus/release/deps/legder_xelis-53a0edecdc8ef744.legder_xelis.24eea2af218bcfe3-cgu.0.rcgu.o:(.text._ZN5alloc5slice64_$LT$impl$u20$alloc..borrow..ToOwned$u20$for$u20$$u5b$T$u5d$$GT$8to_owned17h00b0797bb480f080E)
c0de44c8 c0de44c8        0     1                 $t
c0de44c9 c0de44c9       34     1                 alloc::slice::_$LT$impl$u20$alloc..borrow..ToOwned$u20$for$u20$$u5b$T$u5d$$GT$::to_owned::h00b0797bb480f080
c0de44fc c0de44fc       c0     4         /app/target/nanosplus/release/deps/legder_xelis-53a0edecdc8ef744.legder_xelis.24eea2af218bcfe3-cgu.0.rcgu.o:(.text._ZN4core3fmt3num3imp54_$LT$impl$u20$core..fmt..Display$u20$for$u20$usize$GT$3fmt17hedd684a81fc099d6E)
c0de44fc c0de44fc        0     1                 $t
c0de44fd c0de44fd       c0     1                 core::fmt::num::imp::_$LT$impl$u20$core..fmt..Display$u20$for$u20$usize$GT$::fmt::hedd684a81fc099d6
c0de45b4 c0de45b4        0     1                 $d
c0de45bc c0de45bc      146     2         /app/target/nanosplus/release/deps/legder_xelis-53a0edecdc8ef744.legder_xelis.24eea2af218bcfe3-cgu.0.rcgu.o:(.text._ZN4core3fmt9Formatter12pad_integral17h4ee28442901cb8eeE)
c0de45bc c0de45bc        0     1                 $t
c0de45bd c0de45bd      146     1                 core::fmt::Formatter::pad_integral::h4ee28442901cb8ee
c0de4702 c0de4702       e4     2         /app/target/nanosplus/release/deps/legder_xelis-53a0edecdc8ef744.legder_xelis.24eea2af218bcfe3-cgu.0.rcgu.o:(.text._ZN81_$LT$core..str..iter..Chars$u20$as$u20$core..iter..traits..iterator..Iterator$GT$5count17ha904057f49d7d435E)
c0de4702 c0de4702        0     1                 $t
c0de4703 c0de4703       e4     1                 _$LT$core..str..iter..Chars$u20$as$u20$core..iter..traits..iterator..Iterator$GT$::count::ha904057f49d7d435
c0de47e6 c0de47e6       42     2         /app/target/nanosplus/release/deps/legder_xelis-53a0edecdc8ef744.legder_xelis.24eea2af218bcfe3-cgu.0.rcgu.o:(.text._ZN4core3fmt9Formatter12pad_integral12write_prefix17hea9ada8dcb4eec2fE)
c0de47e6 c0de47e6        0     1                 $t
c0de47e7 c0de47e7       42     1                 core::fmt::Formatter::pad_integral::write_prefix::hea9ada8dcb4eec2f
c0de4828 c0de4828       58     4         /app/target/nanosplus/release/deps/legder_xelis-53a0edecdc8ef744.legder_xelis.24eea2af218bcfe3-cgu.0.rcgu.o:(.text._ZN4core3fmt9Formatter7padding17h1953f43711777458E)
c0de4828 c0de4828        0     1                 $t
c0de4829 c0de4829       58     1                 core::fmt::Formatter::padding::h1953f43711777458
c0de483a c0de483a        0     1                 $d
c0de483e c0de483e        0     1                 $t
c0de4880 c0de4880       38     2         /app/target/nanosplus/release/deps/legder_xelis-53a0edecdc8ef744.legder_xelis.24eea2af218bcfe3-cgu.0.rcgu.o:(.text._ZN4core3fmt11PostPadding5write17he5283145b4049661E)
c0de4880 c0de4880        0     1                 $t
c0de4881 c0de4881       38     1                 core::fmt::PostPadding::write::he5283145b4049661
c0de48b8 c0de48b8       20     2         /app/target/nanosplus/release/deps/legder_xelis-53a0edecdc8ef744.legder_xelis.24eea2af218bcfe3-cgu.0.rcgu.o:(.text._ZN56_$LT$usize$u20$as$u20$core..iter..traits..accum..Sum$GT$3sum17h94e9f58f7b9960baE)
c0de48b8 c0de48b8        0     1                 $t
c0de48b9 c0de48b9       20     1                 _$LT$usize$u20$as$u20$core..iter..traits..accum..Sum$GT$::sum::h94e9f58f7b9960ba
c0de48d8 c0de48d8       1e     2         /app/target/nanosplus/release/deps/legder_xelis-53a0edecdc8ef744.legder_xelis.24eea2af218bcfe3-cgu.0.rcgu.o:(.text._ZN4core5slice29_$LT$impl$u20$$u5b$T$u5d$$GT$15copy_from_slice17h488438e61ed3b373E)
c0de48d8 c0de48d8        0     1                 $t
c0de48d9 c0de48d9       1e     1                 core::slice::_$LT$impl$u20$$u5b$T$u5d$$GT$::copy_from_slice::h488438e61ed3b373
c0de48f6 c0de48f6        8     2         /app/target/nanosplus/release/deps/legder_xelis-53a0edecdc8ef744.legder_xelis.24eea2af218bcfe3-cgu.0.rcgu.o:(.text.unlikely._ZN4core5slice29_$LT$impl$u20$$u5b$T$u5d$$GT$15copy_from_slice17len_mismatch_fail17hf32c1a918f7963caE)
c0de48f6 c0de48f6        0     1                 $t
c0de48f7 c0de48f7        8     1                 core::slice::_$LT$impl$u20$$u5b$T$u5d$$GT$::copy_from_slice::len_mismatch_fail::hf32c1a918f7963ca
c0de48fe c0de48fe       e8     2         /app/target/nanosplus/release/deps/legder_xelis-53a0edecdc8ef744.legder_xelis.24eea2af218bcfe3-cgu.0.rcgu.o:(.text._ZN4core3fmt9Formatter3pad17h625f016dc2ab4916E)
c0de48fe c0de48fe        0     1                 $t
c0de48ff c0de48ff       e8     1                 core::fmt::Formatter::pad::h625f016dc2ab4916
c0de49e6 c0de49e6       30     2         /app/target/nanosplus/release/deps/legder_xelis-53a0edecdc8ef744.legder_xelis.24eea2af218bcfe3-cgu.0.rcgu.o:(.text._ZN87_$LT$core..str..iter..CharIndices$u20$as$u20$core..iter..traits..iterator..Iterator$GT$4next17h3fcdcb19dadd6711E)
c0de49e6 c0de49e6        0     1                 $t
c0de49e7 c0de49e7       30     1                 _$LT$core..str..iter..CharIndices$u20$as$u20$core..iter..traits..iterator..Iterator$GT$::next::h3fcdcb19dadd6711
c0de4a16 c0de4a16       1c     2         /app/target/nanosplus/release/deps/legder_xelis-53a0edecdc8ef744.legder_xelis.24eea2af218bcfe3-cgu.0.rcgu.o:(.text._ZN4core3str6traits110_$LT$impl$u20$core..slice..index..SliceIndex$LT$str$GT$$u20$for$u20$core..ops..range..RangeTo$LT$usize$GT$$GT$3get17hbdc7cdc6c7405ac5E)
c0de4a16 c0de4a16        0     1                 $t
c0de4a17 c0de4a17       1c     1                 core::str::traits::_$LT$impl$u20$core..slice..index..SliceIndex$LT$str$GT$$u20$for$u20$core..ops..range..RangeTo$LT$usize$GT$$GT$::get::hbdc7cdc6c7405ac5
c0de4a32 c0de4a32       6e     2         /app/target/nanosplus/release/deps/legder_xelis-53a0edecdc8ef744.legder_xelis.24eea2af218bcfe3-cgu.0.rcgu.o:(.text._ZN81_$LT$core..str..iter..Chars$u20$as$u20$core..iter..traits..iterator..Iterator$GT$4next17haf42089ae3e28495E.46)
c0de4a32 c0de4a32        0     1                 $t
c0de4a33 c0de4a33       6e     1                 _$LT$core..str..iter..Chars$u20$as$u20$core..iter..traits..iterator..Iterator$GT$::next::haf42089ae3e28495 (.46)
c0de4aa0 c0de4aa0        8     2         /app/target/nanosplus/release/deps/legder_xelis-53a0edecdc8ef744.legder_xelis.24eea2af218bcfe3-cgu.0.rcgu.o:(.text.unlikely._ZN4core9panicking5panic17hf8da2ad9a2e63b4aE)
c0de4aa0 c0de4aa0        0     1                 $t
c0de4aa1 c0de4aa1        8     1                 core::panicking::panic::hf8da2ad9a2e63b4a
c0de4aa8 c0de4aa8        8     2         /app/target/nanosplus/release/deps/legder_xelis-53a0edecdc8ef744.legder_xelis.24eea2af218bcfe3-cgu.0.rcgu.o:(.text.unlikely._ZN4core9panicking19assert_failed_inner17h497bbe59bc18eeb5E)
c0de4aa8 c0de4aa8        0     1                 $t
c0de4aa9 c0de4aa9        8     1                 core::panicking::assert_failed_inner::h497bbe59bc18eeb5
c0de4ab0 c0de4ab0        c     2         /app/target/nanosplus/release/deps/legder_xelis-53a0edecdc8ef744.legder_xelis.24eea2af218bcfe3-cgu.0.rcgu.o:(.text._ZN44_$LT$$RF$T$u20$as$u20$core..fmt..Display$GT$3fmt17h071c21c59cb6152dE)
c0de4ab0 c0de4ab0        0     1                 $t
c0de4ab1 c0de4ab1        c     1                 _$LT$$RF$T$u20$as$u20$core..fmt..Display$GT$::fmt::h071c21c59cb6152d
c0de4abc c0de4abc      136     2         /app/target/nanosplus/release/deps/legder_xelis-53a0edecdc8ef744.legder_xelis.24eea2af218bcfe3-cgu.0.rcgu.o:(.text._ZN4core3fmt5write17h2276077147cd1485E)
c0de4abc c0de4abc        0     1                 $t
c0de4abd c0de4abd      136     1                 core::fmt::write::h2276077147cd1485
c0de4bf2 c0de4bf2       24     2         /app/target/nanosplus/release/deps/legder_xelis-53a0edecdc8ef744.legder_xelis.24eea2af218bcfe3-cgu.0.rcgu.o:(.text._ZN4core3fmt8getcount17h4cfd513ce942c73cE)
c0de4bf2 c0de4bf2        0     1                 $t
c0de4bf3 c0de4bf3       24     1                 core::fmt::getcount::h4cfd513ce942c73c
c0de4c18 c0de4c18       e0     4         /app/target/nanosplus/release/deps/legder_xelis-53a0edecdc8ef744.legder_xelis.24eea2af218bcfe3-cgu.0.rcgu.o:(.text._ZN4core3fmt3num3imp52_$LT$impl$u20$core..fmt..Display$u20$for$u20$u64$GT$3fmt17h2dd46a595e71a414E)
c0de4c18 c0de4c18        0     1                 $t
c0de4c19 c0de4c19       e0     1                 core::fmt::num::imp::_$LT$impl$u20$core..fmt..Display$u20$for$u20$u64$GT$::fmt::h2dd46a595e71a414
c0de4cf0 c0de4cf0        0     1                 $d
c0de4cf8 c0de4cf8        8     2         /app/target/nanosplus/release/deps/legder_xelis-53a0edecdc8ef744.legder_xelis.24eea2af218bcfe3-cgu.0.rcgu.o:(.text.unlikely._ZN4core5slice5index22slice_index_order_fail17ha533745be2d5d054E)
c0de4cf8 c0de4cf8        0     1                 $t
c0de4cf9 c0de4cf9        8     1                 core::slice::index::slice_index_order_fail::ha533745be2d5d054
c0de4d00 c0de4d00        8     2         /app/target/nanosplus/release/deps/legder_xelis-53a0edecdc8ef744.legder_xelis.24eea2af218bcfe3-cgu.0.rcgu.o:(.text._ZN4core5slice5index22slice_index_order_fail8do_panic7runtime17hcd79df322e5c2350E)
c0de4d00 c0de4d00        0     1                 $t
c0de4d01 c0de4d01        8     1                 core::slice::index::slice_index_order_fail::do_panic::runtime::hcd79df322e5c2350
c0de4d08 c0de4d08       1c     2         /app/target/nanosplus/release/deps/legder_xelis-53a0edecdc8ef744.legder_xelis.24eea2af218bcfe3-cgu.0.rcgu.o:(.text._ZN4core3fmt9Arguments23as_statically_known_str17hb8343e5011a79ee9E.62)
c0de4d08 c0de4d08        0     1                 $t
c0de4d09 c0de4d09       1c     1                 core::fmt::Arguments::as_statically_known_str::hb8343e5011a79ee9 (.62)
c0de4d24 c0de4d24       44     4         /app/target/nanosplus/release/deps/legder_xelis-53a0edecdc8ef744.legder_xelis.24eea2af218bcfe3-cgu.0.rcgu.o:(.text._ZN4core3fmt3num55_$LT$impl$u20$core..fmt..LowerHex$u20$for$u20$usize$GT$3fmt17h795dc19ac3e95fe1E)
c0de4d24 c0de4d24        0     1                 $t
c0de4d25 c0de4d25       44     1                 core::fmt::num::_$LT$impl$u20$core..fmt..LowerHex$u20$for$u20$usize$GT$::fmt::h795dc19ac3e95fe1
c0de4d64 c0de4d64        0     1                 $d
c0de4d68 c0de4d68       44     4         /app/target/nanosplus/release/deps/legder_xelis-53a0edecdc8ef744.legder_xelis.24eea2af218bcfe3-cgu.0.rcgu.o:(.text._ZN4core3fmt3num55_$LT$impl$u20$core..fmt..UpperHex$u20$for$u20$usize$GT$3fmt17h45f3417b4ee03250E)
c0de4d68 c0de4d68        0     1                 $t
c0de4d69 c0de4d69       44     1                 core::fmt::num::_$LT$impl$u20$core..fmt..UpperHex$u20$for$u20$usize$GT$::fmt::h45f3417b4ee03250
c0de4da8 c0de4da8        0     1                 $d
c0de4dac c0de4dac      13c     4         /app/target/nanosplus/release/deps/legder_xelis-53a0edecdc8ef744.legder_xelis.24eea2af218bcfe3-cgu.0.rcgu.o:(.text._ZN68_$LT$core..fmt..builders..PadAdapter$u20$as$u20$core..fmt..Write$GT$9write_str17h2ffe822380d84e7dE)
c0de4dac c0de4dac        0     1                 $t
c0de4dad c0de4dad      13c     1                 _$LT$core..fmt..builders..PadAdapter$u20$as$u20$core..fmt..Write$GT$::write_str::h2ffe822380d84e7d
c0de4ee4 c0de4ee4        0     1                 $d
c0de4ee8 c0de4ee8        4     2         /app/target/nanosplus/release/deps/legder_xelis-53a0edecdc8ef744.legder_xelis.24eea2af218bcfe3-cgu.0.rcgu.o:(.text._ZN4core3cmp5impls69_$LT$impl$u20$core..cmp..PartialEq$LT$$RF$B$GT$$u20$for$u20$$RF$A$GT$2eq17h981c27d8bd960054E)
c0de4ee8 c0de4ee8        0     1                 $t
c0de4ee9 c0de4ee9        4     1                 core::cmp::impls::_$LT$impl$u20$core..cmp..PartialEq$LT$$RF$B$GT$$u20$for$u20$$RF$A$GT$::eq::h981c27d8bd960054
c0de4eec c0de4eec       1e     2         /app/target/nanosplus/release/deps/legder_xelis-53a0edecdc8ef744.legder_xelis.24eea2af218bcfe3-cgu.0.rcgu.o:(.text._ZN73_$LT$$u5b$A$u5d$$u20$as$u20$core..slice..cmp..SlicePartialEq$LT$B$GT$$GT$5equal17hb7b5a37985138661E)
c0de4eec c0de4eec        0     1                 $t
c0de4eed c0de4eed       1e     1                 _$LT$$u5b$A$u5d$$u20$as$u20$core..slice..cmp..SlicePartialEq$LT$B$GT$$GT$::equal::hb7b5a37985138661
c0de4f0c c0de4f0c       8c     4         /app/target/nanosplus/release/deps/legder_xelis-53a0edecdc8ef744.legder_xelis.24eea2af218bcfe3-cgu.0.rcgu.o:(.text._ZN4core5slice6memchr14memchr_aligned17h1835a9bae932372eE)
c0de4f0c c0de4f0c        0     1                 $t
c0de4f0d c0de4f0d       8c     1                 core::slice::memchr::memchr_aligned::h1835a9bae932372e
c0de4f94 c0de4f94        0     1                 $d
c0de4f98 c0de4f98       22     2         /app/target/nanosplus/release/deps/legder_xelis-53a0edecdc8ef744.legder_xelis.24eea2af218bcfe3-cgu.0.rcgu.o:(.text._ZN4core5slice6memchr12memchr_naive17h245d302a43bd39bfE)
c0de4f98 c0de4f98        0     1                 $t
c0de4f99 c0de4f99       22     1                 core::slice::memchr::memchr_naive::h245d302a43bd39bf
c0de4fba c0de4fba        8     2         /app/target/nanosplus/release/deps/legder_xelis-53a0edecdc8ef744.legder_xelis.24eea2af218bcfe3-cgu.0.rcgu.o:(.text.unlikely._ZN4core4cell22panic_already_borrowed17h14110f611f3bf771E)
c0de4fba c0de4fba        0     1                 $t
c0de4fbb c0de4fbb        8     1                 core::cell::panic_already_borrowed::h14110f611f3bf771
c0de4fc4 c0de4fc4       4c     4         /app/target/nanosplus/release/deps/legder_xelis-53a0edecdc8ef744.legder_xelis.24eea2af218bcfe3-cgu.0.rcgu.o:(.text._ZN68_$LT$core..fmt..builders..PadAdapter$u20$as$u20$core..fmt..Write$GT$10write_char17hf917504149708b11E)
c0de4fc4 c0de4fc4        0     1                 $t
c0de4fc5 c0de4fc5       4c     1                 _$LT$core..fmt..builders..PadAdapter$u20$as$u20$core..fmt..Write$GT$::write_char::hf917504149708b11
c0de500c c0de500c        0     1                 $d
c0de5010 c0de5010       34     4         /app/target/nanosplus/release/deps/legder_xelis-53a0edecdc8ef744.legder_xelis.24eea2af218bcfe3-cgu.0.rcgu.o:(.text._ZN4core3fmt5Write9write_fmt17h443c5a0ebfb64c11E)
c0de5010 c0de5010        0     1                 $t
c0de5011 c0de5011       34     1                 core::fmt::Write::write_fmt::h443c5a0ebfb64c11
c0de5040 c0de5040        0     1                 $d
c0de5044 c0de5044       14     4         /app/target/nanosplus/release/deps/legder_xelis-53a0edecdc8ef744.legder_xelis.24eea2af218bcfe3-cgu.0.rcgu.o:(.text.unlikely._ZN4core6option13unwrap_failed17h047360c91be041adE)
c0de5044 c0de5044        0     1                 $t
c0de5045 c0de5045       14     1                 core::option::unwrap_failed::h047360c91be041ad
c0de5054 c0de5054        0     1                 $d
c0de5058 c0de5058        8     2         /app/target/nanosplus/release/deps/legder_xelis-53a0edecdc8ef744.legder_xelis.24eea2af218bcfe3-cgu.0.rcgu.o:(.text.unlikely._ZN4core6result13unwrap_failed17hd664c74235147e64E)
c0de5058 c0de5058        0     1                 $t
c0de5059 c0de5059        8     1                 core::result::unwrap_failed::hd664c74235147e64
c0de5060 c0de5060        8     2         /app/target/nanosplus/release/deps/legder_xelis-53a0edecdc8ef744.legder_xelis.24eea2af218bcfe3-cgu.0.rcgu.o:(.text.unlikely._ZN4core9panicking18panic_nounwind_fmt17h139e7cef88d473d1E)
c0de5060 c0de5060        0     1                 $t
c0de5061 c0de5061        8     1                 core::panicking::panic_nounwind_fmt::h139e7cef88d473d1
c0de5068 c0de5068       cc     4         /app/target/nanosplus/release/deps/legder_xelis-53a0edecdc8ef744.legder_xelis.24eea2af218bcfe3-cgu.0.rcgu.o:(.text._ZN4core3fmt8builders10DebugTuple10field_with17h80f717c6f56bd72cE)
c0de5068 c0de5068        0     1                 $t
c0de5069 c0de5069       cc     1                 core::fmt::builders::DebugTuple::field_with::h80f717c6f56bd72c
c0de5120 c0de5120        0     1                 $d
c0de5134 c0de5134       58     4         /app/target/nanosplus/release/deps/legder_xelis-53a0edecdc8ef744.legder_xelis.24eea2af218bcfe3-cgu.0.rcgu.o:(.text._ZN4core3fmt8builders10DebugTuple6finish17h3b6b54e029910633E)
c0de5134 c0de5134        0     1                 $t
c0de5135 c0de5135       58     1                 core::fmt::builders::DebugTuple::finish::h3b6b54e029910633
c0de5184 c0de5184        0     1                 $d
c0de518c c0de518c        c     2         /app/target/nanosplus/release/deps/legder_xelis-53a0edecdc8ef744.legder_xelis.24eea2af218bcfe3-cgu.0.rcgu.o:(.text.unlikely._ZN4core3str16slice_error_fail17hbc56068ba0bc111dE)
c0de518c c0de518c        0     1                 $t
c0de518d c0de518d        c     1                 core::str::slice_error_fail::hbc56068ba0bc111d
c0de5198 c0de5198       98     2         /app/target/nanosplus/release/deps/legder_xelis-53a0edecdc8ef744.legder_xelis.24eea2af218bcfe3-cgu.0.rcgu.o:(.text._ZN4core3str19slice_error_fail_rt17h3978e6c12548ec4dE)
c0de5198 c0de5198        0     1                 $t
c0de5199 c0de5199       98     1                 core::str::slice_error_fail_rt::h3978e6c12548ec4d
c0de5230 c0de5230       32     2         /app/target/nanosplus/release/deps/legder_xelis-53a0edecdc8ef744.legder_xelis.24eea2af218bcfe3-cgu.0.rcgu.o:(.text._ZN4core3str21_$LT$impl$u20$str$GT$19floor_char_boundary17h515bb750f4bc5d88E)
c0de5230 c0de5230        0     1                 $t
c0de5231 c0de5231       32     1                 core::str::_$LT$impl$u20$str$GT$::floor_char_boundary::h515bb750f4bc5d88
c0de5264 c0de5264       10     4         /app/target/nanosplus/release/deps/legder_xelis-53a0edecdc8ef744.legder_xelis.24eea2af218bcfe3-cgu.0.rcgu.o:(.text._ZN42_$LT$$RF$T$u20$as$u20$core..fmt..Debug$GT$3fmt17h67dfb30e2cf1d554E)
c0de5264 c0de5264        0     1                 $t
c0de5265 c0de5265       10     1                 _$LT$$RF$T$u20$as$u20$core..fmt..Debug$GT$::fmt::h67dfb30e2cf1d554
c0de5270 c0de5270        0     1                 $d
c0de5274 c0de5274       20     4         /app/target/nanosplus/release/deps/legder_xelis-53a0edecdc8ef744.legder_xelis.24eea2af218bcfe3-cgu.0.rcgu.o:(.text._ZN4core4cell16RefCell$LT$T$GT$10borrow_mut17he788f9a58ea9b1eaE)
c0de5274 c0de5274        0     1                 $t
c0de5275 c0de5275       20     1                 core::cell::RefCell$LT$T$GT$::borrow_mut::he788f9a58ea9b1ea
c0de5290 c0de5290        0     1                 $d
c0de5294 c0de5294      108     4         /app/target/nanosplus/release/deps/legder_xelis-53a0edecdc8ef744.legder_xelis.24eea2af218bcfe3-cgu.0.rcgu.o:(.text._ZN73_$LT$embedded_alloc..Heap$u20$as$u20$core..alloc..global..GlobalAlloc$GT$5alloc17hf27227034d5f4042E)
c0de5294 c0de5294        0     1                 $t
c0de5295 c0de5295      108     1                 _$LT$embedded_alloc..Heap$u20$as$u20$core..alloc..global..GlobalAlloc$GT$::alloc::hf27227034d5f4042
c0de5398 c0de5398        0     1                 $d
c0de539c c0de539c      11c     4         /app/target/nanosplus/release/deps/legder_xelis-53a0edecdc8ef744.legder_xelis.24eea2af218bcfe3-cgu.0.rcgu.o:(.text._ZN73_$LT$embedded_alloc..Heap$u20$as$u20$core..alloc..global..GlobalAlloc$GT$7dealloc17h4dc32580b39691beE)
c0de539c c0de539c        0     1                 $t
c0de539d c0de539d      11c     1                 _$LT$embedded_alloc..Heap$u20$as$u20$core..alloc..global..GlobalAlloc$GT$::dealloc::h4dc32580b39691be
c0de54b0 c0de54b0        0     1                 $d
c0de54b8 c0de54b8        8     2         /app/target/nanosplus/release/deps/legder_xelis-53a0edecdc8ef744.legder_xelis.24eea2af218bcfe3-cgu.0.rcgu.o:(.text._ZN4core3ptr48drop_in_place$LT$alloc..ffi..c_str..NulError$GT$17h332772dcc1978d2eE)
c0de54b8 c0de54b8        0     1                 $t
c0de54b9 c0de54b9        8     1                 core::ptr::drop_in_place$LT$alloc..ffi..c_str..NulError$GT$::h332772dcc1978d2e
c0de54c0 c0de54c0       54     4         /app/target/nanosplus/release/deps/legder_xelis-53a0edecdc8ef744.legder_xelis.24eea2af218bcfe3-cgu.0.rcgu.o:(.text._ZN64_$LT$alloc..ffi..c_str..NulError$u20$as$u20$core..fmt..Debug$GT$3fmt17hc650f3db248ec53aE)
c0de54c0 c0de54c0        0     1                 $t
c0de54c1 c0de54c1       54     1                 _$LT$alloc..ffi..c_str..NulError$u20$as$u20$core..fmt..Debug$GT$::fmt::hc650f3db248ec53a
c0de5508 c0de5508        0     1                 $d
c0de5514 c0de5514      108     4         /app/target/nanosplus/release/deps/legder_xelis-53a0edecdc8ef744.legder_xelis.24eea2af218bcfe3-cgu.0.rcgu.o:(.text._ZN42_$LT$$RF$T$u20$as$u20$core..fmt..Debug$GT$3fmt17h076fde650b19347dE)
c0de5514 c0de5514        0     1                 $t
c0de5515 c0de5515      108     1                 _$LT$$RF$T$u20$as$u20$core..fmt..Debug$GT$::fmt::h076fde650b19347d
c0de5604 c0de5604        0     1                 $d
c0de561c c0de561c       d0     4         /app/target/nanosplus/release/deps/legder_xelis-53a0edecdc8ef744.legder_xelis.24eea2af218bcfe3-cgu.0.rcgu.o:(.text._ZN42_$LT$$RF$T$u20$as$u20$core..fmt..Debug$GT$3fmt17h074819073196147cE)
c0de561c c0de561c        0     1                 $t
c0de561d c0de561d       d0     1                 _$LT$$RF$T$u20$as$u20$core..fmt..Debug$GT$::fmt::h074819073196147c
c0de56e0 c0de56e0        0     1                 $d
c0de56ec c0de56ec       1a     2         /app/target/nanosplus/release/deps/legder_xelis-53a0edecdc8ef744.legder_xelis.24eea2af218bcfe3-cgu.0.rcgu.o:(.text._ZN4core3fmt3num52_$LT$impl$u20$core..fmt..Debug$u20$for$u20$usize$GT$3fmt17h371af73bdd3b16bfE.124)
c0de56ec c0de56ec        0     1                 $t
c0de56ed c0de56ed       1a     1                 core::fmt::num::_$LT$impl$u20$core..fmt..Debug$u20$for$u20$usize$GT$::fmt::h371af73bdd3b16bf (.124)
c0de5706 c0de5706       24     2         /app/target/nanosplus/release/deps/legder_xelis-53a0edecdc8ef744.legder_xelis.24eea2af218bcfe3-cgu.0.rcgu.o:(.text._ZN5alloc7raw_vec20RawVecInner$LT$A$GT$16with_capacity_in17h641e4ecd4581db87E)
c0de5706 c0de5706        0     1                 $t
c0de5707 c0de5707       24     1                 alloc::raw_vec::RawVecInner$LT$A$GT$::with_capacity_in::h641e4ecd4581db87
c0de572a c0de572a       18     2         /app/target/nanosplus/release/deps/legder_xelis-53a0edecdc8ef744.legder_xelis.24eea2af218bcfe3-cgu.0.rcgu.o:(.text._ZN5alloc7raw_vec20RawVecInner$LT$A$GT$7reserve17h3ca65c3e3f9cdb17E)
c0de572a c0de572a        0     1                 $t
c0de572b c0de572b       18     1                 alloc::raw_vec::RawVecInner$LT$A$GT$::reserve::h3ca65c3e3f9cdb17
c0de5742 c0de5742        e     2         /app/target/nanosplus/release/deps/legder_xelis-53a0edecdc8ef744.legder_xelis.24eea2af218bcfe3-cgu.0.rcgu.o:(.text.unlikely._ZN4core9panicking13assert_failed17hcdd565a4cf09ae96E)
c0de5742 c0de5742        0     1                 $t
c0de5743 c0de5743        e     1                 core::panicking::assert_failed::hcdd565a4cf09ae96
c0de5750 c0de5750       24     4         /app/target/nanosplus/release/deps/legder_xelis-53a0edecdc8ef744.legder_xelis.24eea2af218bcfe3-cgu.0.rcgu.o:(.text._ZN5alloc7raw_vec19RawVec$LT$T$C$A$GT$8grow_one17he3865c2527960aeaE)
c0de5750 c0de5750        0     1                 $t
c0de5751 c0de5751       24     1                 alloc::raw_vec::RawVec$LT$T$C$A$GT$::grow_one::he3865c2527960aea
c0de5770 c0de5770        0     1                 $d
c0de5774 c0de5774       12     2         /app/target/nanosplus/release/deps/legder_xelis-53a0edecdc8ef744.legder_xelis.24eea2af218bcfe3-cgu.0.rcgu.o:(.text._ZN69_$LT$T$u20$as$u20$core..array..equality..SpecArrayEq$LT$U$C$_$GT$$GT$7spec_eq17hb513b46f39bc054eE)
c0de5774 c0de5774        0     1                 $t
c0de5775 c0de5775       12     1                 _$LT$T$u20$as$u20$core..array..equality..SpecArrayEq$LT$U$C$_$GT$$GT$::spec_eq::hb513b46f39bc054e
c0de5786 c0de5786       1e     2         /app/target/nanosplus/release/deps/legder_xelis-53a0edecdc8ef744.legder_xelis.24eea2af218bcfe3-cgu.0.rcgu.o:(.text._ZN17ledger_device_sdk3ecc12bip32_derive17hea48d836f9390347E)
c0de5786 c0de5786        0     1                 $t
c0de5787 c0de5787       1e     1                 ledger_device_sdk::ecc::bip32_derive::hea48d836f9390347
c0de57a4 c0de57a4       70     2         /app/target/nanosplus/release/deps/legder_xelis-53a0edecdc8ef744.legder_xelis.24eea2af218bcfe3-cgu.0.rcgu.o:(.text._ZN17ledger_device_sdk2io4Comm9apdu_send17h7c75d19cd2562d16E)
c0de57a4 c0de57a4        0     1                 $t
c0de57a5 c0de57a5       70     1                 ledger_device_sdk::io::Comm::apdu_send::h7c75d19cd2562d16
c0de5814 c0de5814       20     2         /app/target/nanosplus/release/deps/legder_xelis-53a0edecdc8ef744.legder_xelis.24eea2af218bcfe3-cgu.0.rcgu.o:(.text._ZN86_$LT$ledger_device_sdk..seph..PacketTypes$u20$as$u20$core..convert..From$LT$u8$GT$$GT$4from17h01e03f41ef62cf15E)
c0de5814 c0de5814        0     1                 $t
c0de5815 c0de5815       20     1                 _$LT$ledger_device_sdk..seph..PacketTypes$u20$as$u20$core..convert..From$LT$u8$GT$$GT$::from::h01e03f41ef62cf15
c0de5834 c0de5834       18     2         /app/target/nanosplus/release/deps/legder_xelis-53a0edecdc8ef744.legder_xelis.24eea2af218bcfe3-cgu.0.rcgu.o:(.text._ZN81_$LT$ledger_device_sdk..seph..Events$u20$as$u20$core..convert..From$LT$u8$GT$$GT$4from17h1d4220eca98cfe70E)
c0de5834 c0de5834        0     1                 $t
c0de5835 c0de5835       18     1                 _$LT$ledger_device_sdk..seph..Events$u20$as$u20$core..convert..From$LT$u8$GT$$GT$::from::h1d4220eca98cfe70
c0de584c c0de584c      194     4         /app/target/nanosplus/release/deps/legder_xelis-53a0edecdc8ef744.legder_xelis.24eea2af218bcfe3-cgu.0.rcgu.o:(.text._ZN17ledger_device_sdk2io4Comm16next_event_ahead17h7c67538bc32c5b1eE)
c0de584c c0de584c        0     1                 $t
c0de584d c0de584d      194     1                 ledger_device_sdk::io::Comm::next_event_ahead::h7c67538bc32c5b1e
c0de59dc c0de59dc        0     1                 $d
c0de59e0 c0de59e0       3e     2         /app/target/nanosplus/release/deps/legder_xelis-53a0edecdc8ef744.legder_xelis.24eea2af218bcfe3-cgu.0.rcgu.o:(.text._ZN17ledger_device_sdk2io4Comm5reply17h45ea8ba1b93842b2E)
c0de59e0 c0de59e0        0     1                 $t
c0de59e1 c0de59e1       3e     1                 ledger_device_sdk::io::Comm::reply::h45ea8ba1b93842b2
c0de5a1e c0de5a1e       3a     2         /app/target/nanosplus/release/deps/legder_xelis-53a0edecdc8ef744.legder_xelis.24eea2af218bcfe3-cgu.0.rcgu.o:(.text._ZN17ledger_device_sdk2io4Comm8get_data17h5b0847bc6a4a115fE)
c0de5a1e c0de5a1e        0     1                 $t
c0de5a1f c0de5a1f       3a     1                 ledger_device_sdk::io::Comm::get_data::h5b0847bc6a4a115f
c0de5a58 c0de5a58       c0     2         /app/target/nanosplus/release/deps/legder_xelis-53a0edecdc8ef744.legder_xelis.24eea2af218bcfe3-cgu.0.rcgu.o:(.text._ZN17ledger_device_sdk2io17handle_bolos_apdu17hf0a7d25910c19250E)
c0de5a58 c0de5a58        0     1                 $t
c0de5a59 c0de5a59       c0     1                 ledger_device_sdk::io::handle_bolos_apdu::hf0a7d25910c19250
c0de5b18 c0de5b18        8     2         /app/target/nanosplus/release/deps/legder_xelis-53a0edecdc8ef744.legder_xelis.24eea2af218bcfe3-cgu.0.rcgu.o:(.text._ZN17ledger_device_sdk2io4Comm8reply_ok17hb1e6881c729172efE)
c0de5b18 c0de5b18        0     1                 $t
c0de5b19 c0de5b19        8     1                 ledger_device_sdk::io::Comm::reply_ok::hb1e6881c729172ef
c0de5b20 c0de5b20       34     2         /app/target/nanosplus/release/deps/legder_xelis-53a0edecdc8ef744.legder_xelis.24eea2af218bcfe3-cgu.0.rcgu.o:(.text._ZN17ledger_device_sdk2io4Comm8get_data28_$u7b$$u7b$closure$u7d$$u7d$17h9ac651ea71406235E)
c0de5b20 c0de5b20        0     1                 $t
c0de5b21 c0de5b21       34     1                 ledger_device_sdk::io::Comm::get_data::_$u7b$$u7b$closure$u7d$$u7d$::h9ac651ea71406235
c0de5b54 c0de5b54       3c     2         /app/target/nanosplus/release/deps/legder_xelis-53a0edecdc8ef744.legder_xelis.24eea2af218bcfe3-cgu.0.rcgu.o:(.text._ZN17ledger_device_sdk2io4Comm6append17h050eed4b704b6446E)
c0de5b54 c0de5b54        0     1                 $t
c0de5b55 c0de5b55       3c     1                 ledger_device_sdk::io::Comm::append::h050eed4b704b6446
c0de5b90 c0de5b90        6     2         /app/target/nanosplus/release/deps/legder_xelis-53a0edecdc8ef744.legder_xelis.24eea2af218bcfe3-cgu.0.rcgu.o:(.text._ZN114_$LT$ledger_device_sdk..nvm..AlignedStorage$LT$T$GT$$u20$as$u20$ledger_device_sdk..nvm..SingleStorage$LT$T$GT$$GT$6update17h314057aff6020936E)
c0de5b90 c0de5b90        0     1                 $t
c0de5b91 c0de5b91        6     1                 _$LT$ledger_device_sdk..nvm..AlignedStorage$LT$T$GT$$u20$as$u20$ledger_device_sdk..nvm..SingleStorage$LT$T$GT$$GT$::update::h314057aff6020936
c0de5b98 c0de5b98       34     4         /app/target/nanosplus/release/deps/legder_xelis-53a0edecdc8ef744.legder_xelis.24eea2af218bcfe3-cgu.0.rcgu.o:(.text._ZN111_$LT$ledger_device_sdk..nvm..SafeStorage$LT$T$GT$$u20$as$u20$ledger_device_sdk..nvm..SingleStorage$LT$T$GT$$GT$6update17h0fcb236bda685166E)
c0de5b98 c0de5b98        0     1                 $t
c0de5b99 c0de5b99       34     1                 _$LT$ledger_device_sdk..nvm..SafeStorage$LT$T$GT$$u20$as$u20$ledger_device_sdk..nvm..SingleStorage$LT$T$GT$$GT$::update::h0fcb236bda685166
c0de5bc4 c0de5bc4        0     1                 $d
c0de5bcc c0de5bcc       1c     2         /app/target/nanosplus/release/deps/legder_xelis-53a0edecdc8ef744.legder_xelis.24eea2af218bcfe3-cgu.0.rcgu.o:(.text._ZN17ledger_device_sdk3nvm22AtomicStorage$LT$T$GT$5which17h05f94ce09e3220c0E)
c0de5bcc c0de5bcc        0     1                 $t
c0de5bcd c0de5bcd       1c     1                 ledger_device_sdk::nvm::AtomicStorage$LT$T$GT$::which::h05f94ce09e3220c0
c0de5be8 c0de5be8       34     2         /app/target/nanosplus/release/deps/legder_xelis-53a0edecdc8ef744.legder_xelis.24eea2af218bcfe3-cgu.0.rcgu.o:(.text._ZN113_$LT$ledger_device_sdk..nvm..AtomicStorage$LT$T$GT$$u20$as$u20$ledger_device_sdk..nvm..SingleStorage$LT$T$GT$$GT$7get_ref17h909fbefbc2ccc1faE)
c0de5be8 c0de5be8        0     1                 $t
c0de5be9 c0de5be9       34     1                 _$LT$ledger_device_sdk..nvm..AtomicStorage$LT$T$GT$$u20$as$u20$ledger_device_sdk..nvm..SingleStorage$LT$T$GT$$GT$::get_ref::h909fbefbc2ccc1fa
c0de5c1c c0de5c1c       32     2         /app/target/nanosplus/release/deps/legder_xelis-53a0edecdc8ef744.legder_xelis.24eea2af218bcfe3-cgu.0.rcgu.o:(.text._ZN128_$LT$$RF$ledger_device_sdk..nbgl..NbglGlyph$u20$as$u20$core..convert..Into$LT$ledger_secure_sdk_sys..nbgl_icon_details_s$GT$$GT$4into17h09942e77cfe830daE)
c0de5c1c c0de5c1c        0     1                 $t
c0de5c1d c0de5c1d       32     1                 _$LT$$RF$ledger_device_sdk..nbgl..NbglGlyph$u20$as$u20$core..convert..Into$LT$ledger_secure_sdk_sys..nbgl_icon_details_s$GT$$GT$::into::h09942e77cfe830da
c0de5c50 c0de5c50       14     4         /app/target/nanosplus/release/deps/legder_xelis-53a0edecdc8ef744.legder_xelis.24eea2af218bcfe3-cgu.0.rcgu.o:(.text._ZN17ledger_device_sdk4nbgl15choice_callback17h4598a5eaaee274b0E)
c0de5c50 c0de5c50        0     1                 $t
c0de5c51 c0de5c51       14     1                 ledger_device_sdk::nbgl::choice_callback::h4598a5eaaee274b0
c0de5c60 c0de5c60        0     1                 $d
c0de5c64 c0de5c64        c     2         /app/target/nanosplus/release/deps/legder_xelis-53a0edecdc8ef744.legder_xelis.24eea2af218bcfe3-cgu.0.rcgu.o:(.text._ZN50_$LT$T$u20$as$u20$core..convert..Into$LT$U$GT$$GT$4into17hc392350fbafc0b5cE)
c0de5c64 c0de5c64        0     1                 $t
c0de5c65 c0de5c65        c     1                 _$LT$T$u20$as$u20$core..convert..Into$LT$U$GT$$GT$::into::hc392350fbafc0b5c
c0de5c70 c0de5c70       a4     4         /app/target/nanosplus/release/deps/legder_xelis-53a0edecdc8ef744.legder_xelis.24eea2af218bcfe3-cgu.0.rcgu.o:(.text._ZN17ledger_device_sdk4nbgl22nbgl_home_and_settings17settings_callback17h0368868e02c1b94dE)
c0de5c70 c0de5c70        0     1                 $t
c0de5c71 c0de5c71       a4     1                 ledger_device_sdk::nbgl::nbgl_home_and_settings::settings_callback::h0368868e02c1b94d
c0de5d08 c0de5d08        0     1                 $d
c0de5d14 c0de5d14      14c     4         /app/target/nanosplus/release/deps/legder_xelis-53a0edecdc8ef744.legder_xelis.24eea2af218bcfe3-cgu.0.rcgu.o:(.text._ZN17ledger_device_sdk4nbgl22nbgl_home_and_settings19NbglHomeAndSettings15show_and_return17h81ca24c8332f76deE)
c0de5d14 c0de5d14        0     1                 $t
c0de5d15 c0de5d15      14c     1                 ledger_device_sdk::nbgl::nbgl_home_and_settings::NbglHomeAndSettings::show_and_return::h81ca24c8332f76de
c0de5e4c c0de5e4c        0     1                 $d
c0de5e60 c0de5e60        a     2         /app/target/nanosplus/release/deps/legder_xelis-53a0edecdc8ef744.legder_xelis.24eea2af218bcfe3-cgu.0.rcgu.o:(.text._ZN17ledger_device_sdk4nbgl22nbgl_home_and_settings7quit_cb17h6703984cb119039eE)
c0de5e60 c0de5e60        0     1                 $t
c0de5e61 c0de5e61        a     1                 ledger_device_sdk::nbgl::nbgl_home_and_settings::quit_cb::h6703984cb119039e
c0de5e6c c0de5e6c       68     4         /app/target/nanosplus/release/deps/legder_xelis-53a0edecdc8ef744.legder_xelis.24eea2af218bcfe3-cgu.0.rcgu.o:(.text._ZN17ledger_device_sdk4nbgl18nbgl_review_status16NbglReviewStatus4show17h2e3917498b343fc5E)
c0de5e6c c0de5e6c        0     1                 $t
c0de5e6d c0de5e6d       68     1                 ledger_device_sdk::nbgl::nbgl_review_status::NbglReviewStatus::show::h2e3917498b343fc5
c0de5e80 c0de5e80        0     1                 $d
c0de5e84 c0de5e84        0     1                 $t
c0de5ecc c0de5ecc        0     1                 $d
c0de5ed4 c0de5ed4       10     4         /app/target/nanosplus/release/deps/legder_xelis-53a0edecdc8ef744.legder_xelis.24eea2af218bcfe3-cgu.0.rcgu.o:(.text._ZN17ledger_device_sdk4nbgl13quit_callback17ha379ba0fe9a902f1E)
c0de5ed4 c0de5ed4        0     1                 $t
c0de5ed5 c0de5ed5       10     1                 ledger_device_sdk::nbgl::quit_callback::ha379ba0fe9a902f1
c0de5ee0 c0de5ee0        0     1                 $d
c0de5ee4 c0de5ee4       2a     2         /app/target/nanosplus/release/deps/legder_xelis-53a0edecdc8ef744.legder_xelis.24eea2af218bcfe3-cgu.0.rcgu.o:(.text._ZN93_$LT$ledger_device_sdk..hash..sha3..Sha3_512$u20$as$u20$ledger_device_sdk..hash..HashInit$GT$3new17hfd9e3c009e5fb161E)
c0de5ee4 c0de5ee4        0     1                 $t
c0de5ee5 c0de5ee5       2a     1                 _$LT$ledger_device_sdk..hash..sha3..Sha3_512$u20$as$u20$ledger_device_sdk..hash..HashInit$GT$::new::hfd9e3c009e5fb161
c0de5f0e c0de5f0e        c     2         /app/target/nanosplus/release/deps/legder_xelis-53a0edecdc8ef744.legder_xelis.24eea2af218bcfe3-cgu.0.rcgu.o:(.text._ZN21ledger_secure_sdk_sys4seph5io_rx17h88f65c0acba6d54fE)
c0de5f0e c0de5f0e        0     1                 $t
c0de5f0f c0de5f0f        c     1                 ledger_secure_sdk_sys::seph::io_rx::h88f65c0acba6d54f
c0de5f1a c0de5f1a        a     2         /app/target/nanosplus/release/deps/legder_xelis-53a0edecdc8ef744.legder_xelis.24eea2af218bcfe3-cgu.0.rcgu.o:(.text._ZN21ledger_secure_sdk_sys4seph5io_tx17hd7b3d836181561b0E)
c0de5f1a c0de5f1a        0     1                 $t
c0de5f1b c0de5f1b        a     1                 ledger_secure_sdk_sys::seph::io_tx::hd7b3d836181561b0
c0de5f24 c0de5f24        a     2         /app/target/nanosplus/release/deps/legder_xelis-53a0edecdc8ef744.legder_xelis.24eea2af218bcfe3-cgu.0.rcgu.o:(.text._ZN21ledger_secure_sdk_sys8exit_app17he65949cfb92e48f3E)
c0de5f24 c0de5f24        0     1                 $t
c0de5f25 c0de5f25        a     1                 ledger_secure_sdk_sys::exit_app::he65949cfb92e48f3
c0de5f30 c0de5f30       50     4         /app/target/nanosplus/release/deps/legder_xelis-53a0edecdc8ef744.legder_xelis.24eea2af218bcfe3-cgu.0.rcgu.o:(.text.heap_init)
c0de5f30 c0de5f30        0     1                 $t
c0de5f31 c0de5f31       50     1                 heap_init
c0de5f78 c0de5f78        0     1                 $d
c0de5f80 c0de5f80       3c     2         /app/target/nanosplus/release/deps/legder_xelis-53a0edecdc8ef744.legder_xelis.24eea2af218bcfe3-cgu.0.rcgu.o:(.text.__rust_realloc)
c0de5f80 c0de5f80        0     1                 $t
c0de5f81 c0de5f81       3c     1                 __rust_realloc
c0de5fbc c0de5fbc       20     2         /app/target/nanosplus/release/deps/legder_xelis-53a0edecdc8ef744.legder_xelis.24eea2af218bcfe3-cgu.0.rcgu.o:(.text._ZN4core3ptr7mut_ptr31_$LT$impl$u20$$BP$mut$u20$T$GT$12align_offset17h7916e53460bfccf4E)
c0de5fbc c0de5fbc        0     1                 $t
c0de5fbd c0de5fbd       20     1                 core::ptr::mut_ptr::_$LT$impl$u20$$BP$mut$u20$T$GT$::align_offset::h7916e53460bfccf4
c0de5fdc c0de5fdc       3c     4         /app/target/nanosplus/release/deps/legder_xelis-53a0edecdc8ef744.legder_xelis.24eea2af218bcfe3-cgu.0.rcgu.o:(.text._ZN21linked_list_allocator4hole8HoleList12align_layout17h398d315f45b873efE)
c0de5fdc c0de5fdc        0     1                 $t
c0de5fdd c0de5fdd       3c     1                 linked_list_allocator::hole::HoleList::align_layout::h398d315f45b873ef
c0de6010 c0de6010        0     1                 $d
c0de6018 c0de6018       14     4         /app/target/nanosplus/release/deps/legder_xelis-53a0edecdc8ef744.legder_xelis.24eea2af218bcfe3-cgu.0.rcgu.o:(.text._ZN69_$LT$core..alloc..layout..LayoutError$u20$as$u20$core..fmt..Debug$GT$3fmt17h83ddb85d0c678701E.220)
c0de6018 c0de6018        0     1                 $t
c0de6019 c0de6019       14     1                 _$LT$core..alloc..layout..LayoutError$u20$as$u20$core..fmt..Debug$GT$::fmt::h83ddb85d0c678701 (.220)
c0de6028 c0de6028        0     1                 $d
c0de602c c0de602c       24     2         /app/target/nanosplus/release/deps/legder_xelis-53a0edecdc8ef744.legder_xelis.24eea2af218bcfe3-cgu.0.rcgu.o:(.text._ZN21linked_list_allocator4hole15check_merge_top17h3fcc24c50644125aE)
c0de602c c0de602c        0     1                 $t
c0de602d c0de602d       24     1                 linked_list_allocator::hole::check_merge_top::h3fcc24c50644125a
c0de6050 c0de6050        8     2         /app/target/nanosplus/release/deps/legder_xelis-53a0edecdc8ef744.legder_xelis.24eea2af218bcfe3-cgu.0.rcgu.o:(.text.OUTLINED_FUNCTION_0)
c0de6050 c0de6050        0     1                 $t
c0de6051 c0de6051        8     1                 OUTLINED_FUNCTION_0
c0de6058 c0de6058       1c     2         /app/target/nanosplus/release/deps/legder_xelis-53a0edecdc8ef744.legder_xelis.24eea2af218bcfe3-cgu.0.rcgu.o:(.text.OUTLINED_FUNCTION_1)
c0de6058 c0de6058        0     1                 $t
c0de6059 c0de6059       1c     1                 OUTLINED_FUNCTION_1
c0de6074 c0de6074        8     2         /app/target/nanosplus/release/deps/legder_xelis-53a0edecdc8ef744.legder_xelis.24eea2af218bcfe3-cgu.0.rcgu.o:(.text.OUTLINED_FUNCTION_2)
c0de6074 c0de6074        0     1                 $t
c0de6075 c0de6075        8     1                 OUTLINED_FUNCTION_2
c0de607c c0de607c        6     2         /app/target/nanosplus/release/deps/legder_xelis-53a0edecdc8ef744.legder_xelis.24eea2af218bcfe3-cgu.0.rcgu.o:(.text.OUTLINED_FUNCTION_3)
c0de607c c0de607c        0     1                 $t
c0de607d c0de607d        6     1                 OUTLINED_FUNCTION_3
c0de6082 c0de6082       12     2         /app/target/nanosplus/release/deps/legder_xelis-53a0edecdc8ef744.legder_xelis.24eea2af218bcfe3-cgu.0.rcgu.o:(.text.OUTLINED_FUNCTION_4)
c0de6082 c0de6082        0     1                 $t
c0de6083 c0de6083       12     1                 OUTLINED_FUNCTION_4
c0de6094 c0de6094        6     2         /app/target/nanosplus/release/deps/legder_xelis-53a0edecdc8ef744.legder_xelis.24eea2af218bcfe3-cgu.0.rcgu.o:(.text.OUTLINED_FUNCTION_5)
c0de6094 c0de6094        0     1                 $t
c0de6095 c0de6095        6     1                 OUTLINED_FUNCTION_5
c0de609a c0de609a        8     2         /app/target/nanosplus/release/deps/legder_xelis-53a0edecdc8ef744.legder_xelis.24eea2af218bcfe3-cgu.0.rcgu.o:(.text.OUTLINED_FUNCTION_6)
c0de609a c0de609a        0     1                 $t
c0de609b c0de609b        8     1                 OUTLINED_FUNCTION_6
c0de60a2 c0de60a2        8     2         /app/target/nanosplus/release/deps/legder_xelis-53a0edecdc8ef744.legder_xelis.24eea2af218bcfe3-cgu.0.rcgu.o:(.text.OUTLINED_FUNCTION_7)
c0de60a2 c0de60a2        0     1                 $t
c0de60a3 c0de60a3        8     1                 OUTLINED_FUNCTION_7
c0de60aa c0de60aa        8     2         /app/target/nanosplus/release/deps/legder_xelis-53a0edecdc8ef744.legder_xelis.24eea2af218bcfe3-cgu.0.rcgu.o:(.text.OUTLINED_FUNCTION_8)
c0de60aa c0de60aa        0     1                 $t
c0de60ab c0de60ab        8     1                 OUTLINED_FUNCTION_8
c0de60b2 c0de60b2        8     2         /app/target/nanosplus/release/deps/legder_xelis-53a0edecdc8ef744.legder_xelis.24eea2af218bcfe3-cgu.0.rcgu.o:(.text.OUTLINED_FUNCTION_9)
c0de60b2 c0de60b2        0     1                 $t
c0de60b3 c0de60b3        8     1                 OUTLINED_FUNCTION_9
c0de60ba c0de60ba        6     2         /app/target/nanosplus/release/deps/legder_xelis-53a0edecdc8ef744.legder_xelis.24eea2af218bcfe3-cgu.0.rcgu.o:(.text.OUTLINED_FUNCTION_10)
c0de60ba c0de60ba        0     1                 $t
c0de60bb c0de60bb        6     1                 OUTLINED_FUNCTION_10
c0de60c0 c0de60c0        6     2         /app/target/nanosplus/release/deps/legder_xelis-53a0edecdc8ef744.legder_xelis.24eea2af218bcfe3-cgu.0.rcgu.o:(.text.OUTLINED_FUNCTION_11)
c0de60c0 c0de60c0        0     1                 $t
c0de60c1 c0de60c1        6     1                 OUTLINED_FUNCTION_11
c0de60c6 c0de60c6        6     2         /app/target/nanosplus/release/deps/legder_xelis-53a0edecdc8ef744.legder_xelis.24eea2af218bcfe3-cgu.0.rcgu.o:(.text.OUTLINED_FUNCTION_12)
c0de60c6 c0de60c6        0     1                 $t
c0de60c7 c0de60c7        6     1                 OUTLINED_FUNCTION_12
c0de60cc c0de60cc        8     2         /app/target/nanosplus/release/deps/legder_xelis-53a0edecdc8ef744.legder_xelis.24eea2af218bcfe3-cgu.0.rcgu.o:(.text.OUTLINED_FUNCTION_13)
c0de60cc c0de60cc        0     1                 $t
c0de60cd c0de60cd        8     1                 OUTLINED_FUNCTION_13
c0de60d4 c0de60d4        c     2         /app/target/nanosplus/release/deps/legder_xelis-53a0edecdc8ef744.legder_xelis.24eea2af218bcfe3-cgu.0.rcgu.o:(.text.OUTLINED_FUNCTION_14)
c0de60d4 c0de60d4        0     1                 $t
c0de60d5 c0de60d5        c     1                 OUTLINED_FUNCTION_14
c0de60e0 c0de60e0       22     2         /app/target/nanosplus/release/deps/legder_xelis-53a0edecdc8ef744.legder_xelis.24eea2af218bcfe3-cgu.0.rcgu.o:(.text.OUTLINED_FUNCTION_15)
c0de60e0 c0de60e0        0     1                 $t
c0de60e1 c0de60e1       22     1                 OUTLINED_FUNCTION_15
c0de6102 c0de6102        6     2         /app/target/nanosplus/release/deps/legder_xelis-53a0edecdc8ef744.legder_xelis.24eea2af218bcfe3-cgu.0.rcgu.o:(.text.OUTLINED_FUNCTION_16)
c0de6102 c0de6102        0     1                 $t
c0de6103 c0de6103        6     1                 OUTLINED_FUNCTION_16
c0de6108 c0de6108        6     2         /app/target/nanosplus/release/deps/legder_xelis-53a0edecdc8ef744.legder_xelis.24eea2af218bcfe3-cgu.0.rcgu.o:(.text.OUTLINED_FUNCTION_17)
c0de6108 c0de6108        0     1                 $t
c0de6109 c0de6109        6     1                 OUTLINED_FUNCTION_17
c0de610e c0de610e        c     2         /app/target/nanosplus/release/deps/legder_xelis-53a0edecdc8ef744.legder_xelis.24eea2af218bcfe3-cgu.0.rcgu.o:(.text.OUTLINED_FUNCTION_18)
c0de610e c0de610e        0     1                 $t
c0de610f c0de610f        c     1                 OUTLINED_FUNCTION_18
c0de611a c0de611a        8     2         /app/target/nanosplus/release/deps/legder_xelis-53a0edecdc8ef744.legder_xelis.24eea2af218bcfe3-cgu.0.rcgu.o:(.text.OUTLINED_FUNCTION_19)
c0de611a c0de611a        0     1                 $t
c0de611b c0de611b        8     1                 OUTLINED_FUNCTION_19
c0de6122 c0de6122        8     2         /app/target/nanosplus/release/deps/legder_xelis-53a0edecdc8ef744.legder_xelis.24eea2af218bcfe3-cgu.0.rcgu.o:(.text.OUTLINED_FUNCTION_20)
c0de6122 c0de6122        0     1                 $t
c0de6123 c0de6123        8     1                 OUTLINED_FUNCTION_20
c0de612a c0de612a        8     2         /app/target/nanosplus/release/deps/legder_xelis-53a0edecdc8ef744.legder_xelis.24eea2af218bcfe3-cgu.0.rcgu.o:(.text.OUTLINED_FUNCTION_21)
c0de612a c0de612a        0     1                 $t
c0de612b c0de612b        8     1                 OUTLINED_FUNCTION_21
c0de6132 c0de6132        8     2         /app/target/nanosplus/release/deps/legder_xelis-53a0edecdc8ef744.legder_xelis.24eea2af218bcfe3-cgu.0.rcgu.o:(.text.OUTLINED_FUNCTION_22)
c0de6132 c0de6132        0     1                 $t
c0de6133 c0de6133        8     1                 OUTLINED_FUNCTION_22
c0de613a c0de613a        6     2         /app/target/nanosplus/release/deps/legder_xelis-53a0edecdc8ef744.legder_xelis.24eea2af218bcfe3-cgu.0.rcgu.o:(.text.OUTLINED_FUNCTION_23)
c0de613a c0de613a        0     1                 $t
c0de613b c0de613b        6     1                 OUTLINED_FUNCTION_23
c0de6140 c0de6140        a     2         /app/target/nanosplus/release/deps/legder_xelis-53a0edecdc8ef744.legder_xelis.24eea2af218bcfe3-cgu.0.rcgu.o:(.text.OUTLINED_FUNCTION_24)
c0de6140 c0de6140        0     1                 $t
c0de6141 c0de6141        a     1                 OUTLINED_FUNCTION_24
c0de614a c0de614a        6     2         /app/target/nanosplus/release/deps/legder_xelis-53a0edecdc8ef744.legder_xelis.24eea2af218bcfe3-cgu.0.rcgu.o:(.text.OUTLINED_FUNCTION_25)
c0de614a c0de614a        0     1                 $t
c0de614b c0de614b        6     1                 OUTLINED_FUNCTION_25
c0de6150 c0de6150        6     2         /app/target/nanosplus/release/deps/legder_xelis-53a0edecdc8ef744.legder_xelis.24eea2af218bcfe3-cgu.0.rcgu.o:(.text.OUTLINED_FUNCTION_26)
c0de6150 c0de6150        0     1                 $t
c0de6151 c0de6151        6     1                 OUTLINED_FUNCTION_26
c0de6156 c0de6156        6     2         /app/target/nanosplus/release/deps/legder_xelis-53a0edecdc8ef744.legder_xelis.24eea2af218bcfe3-cgu.0.rcgu.o:(.text.OUTLINED_FUNCTION_27)
c0de6156 c0de6156        0     1                 $t
c0de6157 c0de6157        6     1                 OUTLINED_FUNCTION_27
c0de615c c0de615c        a     2         /app/target/nanosplus/release/deps/legder_xelis-53a0edecdc8ef744.legder_xelis.24eea2af218bcfe3-cgu.0.rcgu.o:(.text.OUTLINED_FUNCTION_28)
c0de615c c0de615c        0     1                 $t
c0de615d c0de615d        a     1                 OUTLINED_FUNCTION_28
c0de6166 c0de6166        6     2         /app/target/nanosplus/release/deps/legder_xelis-53a0edecdc8ef744.legder_xelis.24eea2af218bcfe3-cgu.0.rcgu.o:(.text.OUTLINED_FUNCTION_29)
c0de6166 c0de6166        0     1                 $t
c0de6167 c0de6167        6     1                 OUTLINED_FUNCTION_29
c0de616c c0de616c        8     2         /app/target/nanosplus/release/deps/legder_xelis-53a0edecdc8ef744.legder_xelis.24eea2af218bcfe3-cgu.0.rcgu.o:(.text.OUTLINED_FUNCTION_30)
c0de616c c0de616c        0     1                 $t
c0de616d c0de616d        8     1                 OUTLINED_FUNCTION_30
c0de6174 c0de6174       f0     2         /tmp/rustcF3LqcJ/libledger_secure_sdk_sys-bd0b62138df877e8.rlib(2a79bb93db92c8b8-src.o):(.text.link_pass)
c0de6174 c0de6174        0     1                 $t.0
c0de6175 c0de6175       f0     1                 link_pass
c0de6264 c0de6264       34     4         /tmp/rustcF3LqcJ/libledger_secure_sdk_sys-bd0b62138df877e8.rlib(2a79bb93db92c8b8-src.o):(.text.link_pass_ram)
c0de6264 c0de6264        0     1                 $t.2
c0de6265 c0de6265       2c     1                 link_pass_ram
c0de6290 c0de6290        0     1                 $d.9
c0de6298 c0de6298       7c     4         /tmp/rustcF3LqcJ/libledger_secure_sdk_sys-bd0b62138df877e8.rlib(2a79bb93db92c8b8-src.o):(.text.link_pass_nvram)
c0de6298 c0de6298        0     1                 $t.3
c0de6299 c0de6299       72     1                 link_pass_nvram
c0de630c c0de630c        0     1                 $d.10
c0de6314 c0de6314       60     4         /tmp/rustcF3LqcJ/libledger_secure_sdk_sys-bd0b62138df877e8.rlib(2a79bb93db92c8b8-src.o):(.text.c_boot_std)
c0de6314 c0de6314        0     1                 $t.5
c0de6315 c0de6315       60     1                 c_boot_std
c0de6370 c0de6370        0     1                 $d.6
c0de6374 c0de6374       bc     2         /tmp/rustcF3LqcJ/libledger_secure_sdk_sys-bd0b62138df877e8.rlib(2a79bb93db92c8b8-src.o):(.text.c_main)
c0de6374 c0de6374        0     1                 $t.7
c0de6375 c0de6375       bc     1                 c_main
c0de6430 c0de6430       34     4         /tmp/rustcF3LqcJ/libledger_secure_sdk_sys-bd0b62138df877e8.rlib(774f11bebde71d82-sjlj.o):(.text)
c0de6430 c0de6430        0     1                 $t.0
c0de6431 c0de6431        0     1                 setjmp
c0de6449 c0de6449        0     1                 longjmp
c0de6462 c0de6462        0     1                 longjmp_ret_ok
c0de6464 c0de6464       3c     4         /tmp/rustcF3LqcJ/libledger_secure_sdk_sys-bd0b62138df877e8.rlib(dbe27254336b5a6c-pic.o):(.text.pic)
c0de6464 c0de6464        0     1                 $t.0
c0de6465 c0de6465       2a     1                 pic
c0de6490 c0de6490        0     1                 $d.2
c0de64a0 c0de64a0       10     4         /tmp/rustcF3LqcJ/libledger_secure_sdk_sys-bd0b62138df877e8.rlib(dbe27254336b5a6c-pic.o):(.text.pic_internal)
c0de64a0 c0de64a0        0     1                 $t.1
c0de64a1 c0de64a1        c     1                 pic_internal
c0de64ac c0de64ac        0     1                 $d.3
c0de64b0 c0de64b0        a     1         /tmp/rustcF3LqcJ/libledger_secure_sdk_sys-bd0b62138df877e8.rlib(a8c7b1d3d0023354-cx_stubs.o):(.text.cx_hash_final)
c0de64b0 c0de64b0        0     1                 $t.63
c0de64b1 c0de64b1        0     1                 cx_hash_final
c0de64ba c0de64ba        a     1         /tmp/rustcF3LqcJ/libledger_secure_sdk_sys-bd0b62138df877e8.rlib(a8c7b1d3d0023354-cx_stubs.o):(.text.cx_hash_get_size)
c0de64ba c0de64ba        0     1                 $t.65
c0de64bb c0de64bb        0     1                 cx_hash_get_size
c0de64c4 c0de64c4        a     1         /tmp/rustcF3LqcJ/libledger_secure_sdk_sys-bd0b62138df877e8.rlib(a8c7b1d3d0023354-cx_stubs.o):(.text.cx_hash_update)
c0de64c4 c0de64c4        0     1                 $t.72
c0de64c5 c0de64c5        0     1                 cx_hash_update
c0de64ce c0de64ce        a     1         /tmp/rustcF3LqcJ/libledger_secure_sdk_sys-bd0b62138df877e8.rlib(a8c7b1d3d0023354-cx_stubs.o):(.text.cx_math_addm_no_throw)
c0de64ce c0de64ce        0     1                 $t.87
c0de64cf c0de64cf        0     1                 cx_math_addm_no_throw
c0de64d8 c0de64d8        a     1         /tmp/rustcF3LqcJ/libledger_secure_sdk_sys-bd0b62138df877e8.rlib(a8c7b1d3d0023354-cx_stubs.o):(.text.cx_math_modm_no_throw)
c0de64d8 c0de64d8        0     1                 $t.93
c0de64d9 c0de64d9        0     1                 cx_math_modm_no_throw
c0de64e2 c0de64e2        a     1         /tmp/rustcF3LqcJ/libledger_secure_sdk_sys-bd0b62138df877e8.rlib(a8c7b1d3d0023354-cx_stubs.o):(.text.cx_math_multm_no_throw)
c0de64e2 c0de64e2        0     1                 $t.94
c0de64e3 c0de64e3        0     1                 cx_math_multm_no_throw
c0de64ec c0de64ec        a     1         /tmp/rustcF3LqcJ/libledger_secure_sdk_sys-bd0b62138df877e8.rlib(a8c7b1d3d0023354-cx_stubs.o):(.text.cx_math_powm_no_throw)
c0de64ec c0de64ec        0     1                 $t.97
c0de64ed c0de64ed        0     1                 cx_math_powm_no_throw
c0de64f6 c0de64f6        a     1         /tmp/rustcF3LqcJ/libledger_secure_sdk_sys-bd0b62138df877e8.rlib(a8c7b1d3d0023354-cx_stubs.o):(.text.cx_math_subm_no_throw)
c0de64f6 c0de64f6        0     1                 $t.98
c0de64f7 c0de64f7        0     1                 cx_math_subm_no_throw
c0de6500 c0de6500        a     1         /tmp/rustcF3LqcJ/libledger_secure_sdk_sys-bd0b62138df877e8.rlib(a8c7b1d3d0023354-cx_stubs.o):(.text.cx_sha3_init_no_throw)
c0de6500 c0de6500        0     1                 $t.118
c0de6501 c0de6501        0     1                 cx_sha3_init_no_throw
c0de650c c0de650c       10     4         /tmp/rustcF3LqcJ/libledger_secure_sdk_sys-bd0b62138df877e8.rlib(a8c7b1d3d0023354-cx_stubs.o):(.text.cx_aes_siv_reset)
c0de650c c0de650c        0     1                 $t.144
c0de650d c0de650d        0     1                 cx_aes_siv_reset
c0de6515 c0de6515        0     1                 cx_trampoline_helper
c0de6518 c0de6518        0     1                 $d.145
c0de651c c0de651c        c     2         /tmp/rustcF3LqcJ/libledger_secure_sdk_sys-bd0b62138df877e8.rlib(dbe27254336b5a6c-os.o):(.text.os_longjmp)
c0de651c c0de651c        0     1                 $t.3
c0de651d c0de651d        c     1                 os_longjmp
c0de6528 c0de6528       14     4         /tmp/rustcF3LqcJ/libledger_secure_sdk_sys-bd0b62138df877e8.rlib(dbe27254336b5a6c-syscalls.o):(.text.nvm_write)
c0de6528 c0de6528        0     1                 $t.23
c0de6529 c0de6529       14     1                 nvm_write
c0de6538 c0de6538        0     1                 $d.24
c0de653c c0de653c       20     4         /tmp/rustcF3LqcJ/libledger_secure_sdk_sys-bd0b62138df877e8.rlib(dbe27254336b5a6c-syscalls.o):(.text.os_perso_derive_node_bip32)
c0de653c c0de653c        0     1                 $t.208
c0de653d c0de653d       20     1                 os_perso_derive_node_bip32
c0de6558 c0de6558        0     1                 $d.209
c0de655c c0de655c       12     2         /tmp/rustcF3LqcJ/libledger_secure_sdk_sys-bd0b62138df877e8.rlib(dbe27254336b5a6c-syscalls.o):(.text.os_perso_is_pin_set)
c0de655c c0de655c        0     1                 $t.240
c0de655d c0de655d       12     1                 os_perso_is_pin_set
c0de656e c0de656e       12     2         /tmp/rustcF3LqcJ/libledger_secure_sdk_sys-bd0b62138df877e8.rlib(dbe27254336b5a6c-syscalls.o):(.text.os_global_pin_is_validated)
c0de656e c0de656e        0     1                 $t.241
c0de656f c0de656f       12     1                 os_global_pin_is_validated
c0de6580 c0de6580       14     4         /tmp/rustcF3LqcJ/libledger_secure_sdk_sys-bd0b62138df877e8.rlib(dbe27254336b5a6c-syscalls.o):(.text.os_ux)
c0de6580 c0de6580        0     1                 $t.249
c0de6581 c0de6581       14     1                 os_ux
c0de6590 c0de6590        0     1                 $d.250
c0de6594 c0de6594       10     2         /tmp/rustcF3LqcJ/libledger_secure_sdk_sys-bd0b62138df877e8.rlib(dbe27254336b5a6c-syscalls.o):(.text.os_flags)
c0de6594 c0de6594        0     1                 $t.258
c0de6595 c0de6595       10     1                 os_flags
c0de65a4 c0de65a4       18     4         /tmp/rustcF3LqcJ/libledger_secure_sdk_sys-bd0b62138df877e8.rlib(dbe27254336b5a6c-syscalls.o):(.text.os_registry_get_current_app_tag)
c0de65a4 c0de65a4        0     1                 $t.278
c0de65a5 c0de65a5       18     1                 os_registry_get_current_app_tag
c0de65b8 c0de65b8        0     1                 $d.279
c0de65bc c0de65bc       14     4         /tmp/rustcF3LqcJ/libledger_secure_sdk_sys-bd0b62138df877e8.rlib(dbe27254336b5a6c-syscalls.o):(.text.os_sched_exit)
c0de65bc c0de65bc        0     1                 $t.285
c0de65bd c0de65bd       14     1                 os_sched_exit
c0de65cc c0de65cc        0     1                 $d.286
c0de65d0 c0de65d0       14     4         /tmp/rustcF3LqcJ/libledger_secure_sdk_sys-bd0b62138df877e8.rlib(dbe27254336b5a6c-syscalls.o):(.text.os_io_init)
c0de65d0 c0de65d0        0     1                 $t.297
c0de65d1 c0de65d1       14     1                 os_io_init
c0de65e0 c0de65e0        0     1                 $d.298
c0de65e4 c0de65e4       14     4         /tmp/rustcF3LqcJ/libledger_secure_sdk_sys-bd0b62138df877e8.rlib(dbe27254336b5a6c-syscalls.o):(.text.os_io_start)
c0de65e4 c0de65e4        0     1                 $t.299
c0de65e5 c0de65e5       14     1                 os_io_start
c0de65f4 c0de65f4        0     1                 $d.300
c0de65f8 c0de65f8       18     4         /tmp/rustcF3LqcJ/libledger_secure_sdk_sys-bd0b62138df877e8.rlib(dbe27254336b5a6c-syscalls.o):(.text.os_io_tx_cmd)
c0de65f8 c0de65f8        0     1                 $t.303
c0de65f9 c0de65f9       18     1                 os_io_tx_cmd
c0de660c c0de660c        0     1                 $d.304
c0de6610 c0de6610       18     4         /tmp/rustcF3LqcJ/libledger_secure_sdk_sys-bd0b62138df877e8.rlib(dbe27254336b5a6c-syscalls.o):(.text.os_io_rx_evt)
c0de6610 c0de6610        0     1                 $t.305
c0de6611 c0de6611       18     1                 os_io_rx_evt
c0de6624 c0de6624        0     1                 $d.306
c0de6628 c0de6628       10     2         /tmp/rustcF3LqcJ/libledger_secure_sdk_sys-bd0b62138df877e8.rlib(dbe27254336b5a6c-syscalls.o):(.text.try_context_get)
c0de6628 c0de6628        0     1                 $t.311
c0de6629 c0de6629       10     1                 try_context_get
c0de6638 c0de6638       14     4         /tmp/rustcF3LqcJ/libledger_secure_sdk_sys-bd0b62138df877e8.rlib(dbe27254336b5a6c-syscalls.o):(.text.try_context_set)
c0de6638 c0de6638        0     1                 $t.312
c0de6639 c0de6639       14     1                 try_context_set
c0de6648 c0de6648        0     1                 $d.313
c0de664c c0de664c       18     4         /tmp/rustcF3LqcJ/libledger_secure_sdk_sys-bd0b62138df877e8.rlib(dbe27254336b5a6c-syscalls.o):(.text.os_sched_last_status)
c0de664c c0de664c        0     1                 $t.314
c0de664d c0de664d       18     1                 os_sched_last_status
c0de6660 c0de6660        0     1                 $d.315
c0de6664 c0de6664        8     2         /tmp/rustcF3LqcJ/libledger_secure_sdk_sys-bd0b62138df877e8.rlib(dbe27254336b5a6c-syscalls.o):(.text.OUTLINED_FUNCTION_0)
c0de6664 c0de6664        0     1                 $t.336
c0de6665 c0de6665        8     1                 OUTLINED_FUNCTION_0
c0de666c c0de666c        e     4         /tmp/rustcF3LqcJ/libledger_secure_sdk_sys-bd0b62138df877e8.rlib(e5d9e18012a2e6ac-svc_call.o):(.text)
c0de666c c0de666c        0     1                 $t.0
c0de666d c0de666d        0     1                 SVC_Call
c0de6674 c0de6674        0     1                 exception
c0de667c c0de667c       34     4         /tmp/rustcF3LqcJ/libledger_secure_sdk_sys-bd0b62138df877e8.rlib(bad1508f163a25cc-ux.o):(.text.ux_process_button_event)
c0de667c c0de667c        0     1                 $t.0
c0de667d c0de667d       34     1                 ux_process_button_event
c0de66ac c0de66ac        0     1                 $d.1
c0de66b0 c0de66b0       54     4         /tmp/rustcF3LqcJ/libledger_secure_sdk_sys-bd0b62138df877e8.rlib(bad1508f163a25cc-ux.o):(.text.ux_forward_event)
c0de66b0 c0de66b0        0     1                 $t.2
c0de66b1 c0de66b1       54     1                 ux_forward_event
c0de6700 c0de6700        0     1                 $d.3
c0de6704 c0de6704       30     4         /tmp/rustcF3LqcJ/libledger_secure_sdk_sys-bd0b62138df877e8.rlib(bad1508f163a25cc-ux.o):(.text.ux_process_ticker_event)
c0de6704 c0de6704        0     1                 $t.4
c0de6705 c0de6705       30     1                 ux_process_ticker_event
c0de6730 c0de6730        0     1                 $d.5
c0de6734 c0de6734        6     2         /tmp/rustcF3LqcJ/libledger_secure_sdk_sys-bd0b62138df877e8.rlib(bad1508f163a25cc-ux.o):(.text.ux_process_default_event)
c0de6734 c0de6734        0     1                 $t.6
c0de6735 c0de6735        6     1                 ux_process_default_event
c0de673c c0de673c       4c     4         /tmp/rustcF3LqcJ/libledger_secure_sdk_sys-bd0b62138df877e8.rlib(196e657857525104-nbgl_use_case_nanos.o):(.text.nbgl_useCaseHomeAndSettings)
c0de673c c0de673c        0     1                 $t.11
c0de673d c0de673d       4c     1                 nbgl_useCaseHomeAndSettings
c0de6784 c0de6784        0     1                 $d.12
c0de6788 c0de6788       78     4         /tmp/rustcF3LqcJ/libledger_secure_sdk_sys-bd0b62138df877e8.rlib(196e657857525104-nbgl_use_case_nanos.o):(.text.startUseCaseSettingsAtPage)
c0de6788 c0de6788        0     1                 $t.13
c0de6789 c0de6789       78     1                 startUseCaseSettingsAtPage
c0de67fc c0de67fc        0     1                 $d.14
c0de6800 c0de6800       8c     4         /tmp/rustcF3LqcJ/libledger_secure_sdk_sys-bd0b62138df877e8.rlib(196e657857525104-nbgl_use_case_nanos.o):(.text.startUseCaseHome)
c0de6800 c0de6800        0     1                 $t.15
c0de6801 c0de6801       8c     1                 startUseCaseHome
c0de6888 c0de6888        0     1                 $d.16
c0de688c c0de688c       20     2         /tmp/rustcF3LqcJ/libledger_secure_sdk_sys-bd0b62138df877e8.rlib(196e657857525104-nbgl_use_case_nanos.o):(.text.nbgl_useCaseReview)
c0de688c c0de688c        0     1                 $t.20
c0de688d c0de688d       20     1                 nbgl_useCaseReview
c0de68ac c0de68ac       50     4         /tmp/rustcF3LqcJ/libledger_secure_sdk_sys-bd0b62138df877e8.rlib(196e657857525104-nbgl_use_case_nanos.o):(.text.useCaseReview)
c0de68ac c0de68ac        0     1                 $t.21
c0de68ad c0de68ad       50     1                 useCaseReview
c0de68f8 c0de68f8        0     1                 $d.22
c0de68fc c0de68fc       16     2         /tmp/rustcF3LqcJ/libledger_secure_sdk_sys-bd0b62138df877e8.rlib(196e657857525104-nbgl_use_case_nanos.o):(.text.nbgl_useCaseReviewLight)
c0de68fc c0de68fc        0     1                 $t.29
c0de68fd c0de68fd       16     1                 nbgl_useCaseReviewLight
c0de6914 c0de6914       60     4         /tmp/rustcF3LqcJ/libledger_secure_sdk_sys-bd0b62138df877e8.rlib(196e657857525104-nbgl_use_case_nanos.o):(.text.nbgl_useCaseAddressReview)
c0de6914 c0de6914        0     1                 $t.30
c0de6915 c0de6915       60     1                 nbgl_useCaseAddressReview
c0de6970 c0de6970        0     1                 $d.31
c0de6974 c0de6974      118     4         /tmp/rustcF3LqcJ/libledger_secure_sdk_sys-bd0b62138df877e8.rlib(196e657857525104-nbgl_use_case_nanos.o):(.text.displayReviewPage)
c0de6974 c0de6974        0     1                 $t.32
c0de6975 c0de6975      118     1                 displayReviewPage
c0de6a7c c0de6a7c        0     1                 $d.33
c0de6a8c c0de6a8c       40     4         /tmp/rustcF3LqcJ/libledger_secure_sdk_sys-bd0b62138df877e8.rlib(196e657857525104-nbgl_use_case_nanos.o):(.text.nbgl_useCaseStatus)
c0de6a8c c0de6a8c        0     1                 $t.36
c0de6a8d c0de6a8d       40     1                 nbgl_useCaseStatus
c0de6ac4 c0de6ac4        0     1                 $d.37
c0de6acc c0de6acc      188     4         /tmp/rustcF3LqcJ/libledger_secure_sdk_sys-bd0b62138df877e8.rlib(196e657857525104-nbgl_use_case_nanos.o):(.text.drawStep)
c0de6acc c0de6acc        0     1                 $t.38
c0de6acd c0de6acd      188     1                 drawStep
c0de6c40 c0de6c40        0     1                 $d.39
c0de6c54 c0de6c54       1c     4         /tmp/rustcF3LqcJ/libledger_secure_sdk_sys-bd0b62138df877e8.rlib(196e657857525104-nbgl_use_case_nanos.o):(.text.statusButtonCallback)
c0de6c54 c0de6c54        0     1                 $t.40
c0de6c55 c0de6c55       1c     1                 statusButtonCallback
c0de6c6c c0de6c6c        0     1                 $d.41
c0de6c70 c0de6c70       94     4         /tmp/rustcF3LqcJ/libledger_secure_sdk_sys-bd0b62138df877e8.rlib(196e657857525104-nbgl_use_case_nanos.o):(.text.nbgl_useCaseReviewStatus)
c0de6c70 c0de6c70        0     1                 $t.42
c0de6c71 c0de6c71       94     1                 nbgl_useCaseReviewStatus
c0de6ce4 c0de6ce4        0     1                 $d.43
c0de6d04 c0de6d04       b4     4         /tmp/rustcF3LqcJ/libledger_secure_sdk_sys-bd0b62138df877e8.rlib(196e657857525104-nbgl_use_case_nanos.o):(.text.getContentAtIdx)
c0de6d04 c0de6d04        0     1                 $t.71
c0de6d05 c0de6d05       b4     1                 getContentAtIdx
c0de6db4 c0de6db4        0     1                 $d.72
c0de6db8 c0de6db8       34     2         /tmp/rustcF3LqcJ/libledger_secure_sdk_sys-bd0b62138df877e8.rlib(196e657857525104-nbgl_use_case_nanos.o):(.text.getContentNbElement)
c0de6db8 c0de6db8        0     1                 $t.73
c0de6db9 c0de6db9       34     1                 getContentNbElement
c0de6dec c0de6dec       ac     4         /tmp/rustcF3LqcJ/libledger_secure_sdk_sys-bd0b62138df877e8.rlib(196e657857525104-nbgl_use_case_nanos.o):(.text.displayContent)
c0de6dec c0de6dec        0     1                 $t.74
c0de6ded c0de6ded       ac     1                 displayContent
c0de6e80 c0de6e80        0     1                 $d.75
c0de6e98 c0de6e98      144     4         /tmp/rustcF3LqcJ/libledger_secure_sdk_sys-bd0b62138df877e8.rlib(196e657857525104-nbgl_use_case_nanos.o):(.text.getContentPage)
c0de6e98 c0de6e98        0     1                 $t.76
c0de6e99 c0de6e99      144     1                 getContentPage
c0de6fd0 c0de6fd0        0     1                 $d.77
c0de6fdc c0de6fdc       50     4         /tmp/rustcF3LqcJ/libledger_secure_sdk_sys-bd0b62138df877e8.rlib(196e657857525104-nbgl_use_case_nanos.o):(.text.drawSwitchStep)
c0de6fdc c0de6fdc        0     1                 $t.78
c0de6fdd c0de6fdd       50     1                 drawSwitchStep
c0de7028 c0de7028        0     1                 $d.79
c0de702c c0de702c       1e     2         /tmp/rustcF3LqcJ/libledger_secure_sdk_sys-bd0b62138df877e8.rlib(196e657857525104-nbgl_use_case_nanos.o):(.text.contentCallback)
c0de702c c0de702c        0     1                 $t.80
c0de702d c0de702d       1e     1                 contentCallback
c0de704c c0de704c       88     4         /tmp/rustcF3LqcJ/libledger_secure_sdk_sys-bd0b62138df877e8.rlib(196e657857525104-nbgl_use_case_nanos.o):(.text.getContentElemAtIdx)
c0de704c c0de704c        0     1                 $t.81
c0de704d c0de704d       88     1                 getContentElemAtIdx
c0de70cc c0de70cc        0     1                 $d.82
c0de70d4 c0de70d4       46     2         /tmp/rustcF3LqcJ/libledger_secure_sdk_sys-bd0b62138df877e8.rlib(196e657857525104-nbgl_use_case_nanos.o):(.text.getPairData)
c0de70d4 c0de70d4        0     1                 $t.83
c0de70d5 c0de70d5       46     1                 getPairData
c0de711c c0de711c       b0     4         /tmp/rustcF3LqcJ/libledger_secure_sdk_sys-bd0b62138df877e8.rlib(196e657857525104-nbgl_use_case_nanos.o):(.text.onSwitchAction)
c0de711c c0de711c        0     1                 $t.84
c0de711d c0de711d       b0     1                 onSwitchAction
c0de71c4 c0de71c4        0     1                 $d.85
c0de71cc c0de71cc       9c     4         /tmp/rustcF3LqcJ/libledger_secure_sdk_sys-bd0b62138df877e8.rlib(196e657857525104-nbgl_use_case_nanos.o):(.text.displaySettingsPage)
c0de71cc c0de71cc        0     1                 $t.86
c0de71cd c0de71cd       9c     1                 displaySettingsPage
c0de7250 c0de7250        0     1                 $d.87
c0de7268 c0de7268       1e     2         /tmp/rustcF3LqcJ/libledger_secure_sdk_sys-bd0b62138df877e8.rlib(196e657857525104-nbgl_use_case_nanos.o):(.text.settingsCallback)
c0de7268 c0de7268        0     1                 $t.88
c0de7269 c0de7269       1e     1                 settingsCallback
c0de7288 c0de7288      124     4         /tmp/rustcF3LqcJ/libledger_secure_sdk_sys-bd0b62138df877e8.rlib(196e657857525104-nbgl_use_case_nanos.o):(.text.buttonGenericCallback)
c0de7288 c0de7288        0     1                 $t.89
c0de7289 c0de7289      124     1                 buttonGenericCallback
c0de73a4 c0de73a4        0     1                 $d.90
c0de73ac c0de73ac       fc     4         /tmp/rustcF3LqcJ/libledger_secure_sdk_sys-bd0b62138df877e8.rlib(196e657857525104-nbgl_use_case_nanos.o):(.text.displayHomePage)
c0de73ac c0de73ac        0     1                 $t.91
c0de73ad c0de73ad       fc     1                 displayHomePage
c0de747c c0de747c        0     1                 $d.92
c0de74a8 c0de74a8        6     2         /tmp/rustcF3LqcJ/libledger_secure_sdk_sys-bd0b62138df877e8.rlib(196e657857525104-nbgl_use_case_nanos.o):(.text.startUseCaseSettings)
c0de74a8 c0de74a8        0     1                 $t.93
c0de74a9 c0de74a9        6     1                 startUseCaseSettings
c0de74b0 c0de74b0       24     4         /tmp/rustcF3LqcJ/libledger_secure_sdk_sys-bd0b62138df877e8.rlib(196e657857525104-nbgl_use_case_nanos.o):(.text.startUseCaseInfo)
c0de74b0 c0de74b0        0     1                 $t.94
c0de74b1 c0de74b1       24     1                 startUseCaseInfo
c0de74d0 c0de74d0        0     1                 $d.95
c0de74d4 c0de74d4       1c     2         /tmp/rustcF3LqcJ/libledger_secure_sdk_sys-bd0b62138df877e8.rlib(196e657857525104-nbgl_use_case_nanos.o):(.text.homeCallback)
c0de74d4 c0de74d4        0     1                 $t.96
c0de74d5 c0de74d5       1c     1                 homeCallback
c0de74f0 c0de74f0       78     4         /tmp/rustcF3LqcJ/libledger_secure_sdk_sys-bd0b62138df877e8.rlib(196e657857525104-nbgl_use_case_nanos.o):(.text.displayInfoPage)
c0de74f0 c0de74f0        0     1                 $t.97
c0de74f1 c0de74f1       78     1                 displayInfoPage
c0de7550 c0de7550        0     1                 $d.98
c0de7568 c0de7568       1c     2         /tmp/rustcF3LqcJ/libledger_secure_sdk_sys-bd0b62138df877e8.rlib(196e657857525104-nbgl_use_case_nanos.o):(.text.infoCallback)
c0de7568 c0de7568        0     1                 $t.99
c0de7569 c0de7569       1c     1                 infoCallback
c0de7584 c0de7584      128     4         /tmp/rustcF3LqcJ/libledger_secure_sdk_sys-bd0b62138df877e8.rlib(196e657857525104-nbgl_use_case_nanos.o):(.text.getLastPageInfo)
c0de7584 c0de7584        0     1                 $t.102
c0de7585 c0de7585      128     1                 getLastPageInfo
c0de7650 c0de7650        0     1                 $d.103
c0de76ac c0de76ac       14     4         /tmp/rustcF3LqcJ/libledger_secure_sdk_sys-bd0b62138df877e8.rlib(196e657857525104-nbgl_use_case_nanos.o):(.text.onReviewAccept)
c0de76ac c0de76ac        0     1                 $t.106
c0de76ad c0de76ad       14     1                 onReviewAccept
c0de76bc c0de76bc        0     1                 $d.107
c0de76c0 c0de76c0       14     4         /tmp/rustcF3LqcJ/libledger_secure_sdk_sys-bd0b62138df877e8.rlib(196e657857525104-nbgl_use_case_nanos.o):(.text.onReviewReject)
c0de76c0 c0de76c0        0     1                 $t.108
c0de76c1 c0de76c1       14     1                 onReviewReject
c0de76d0 c0de76d0        0     1                 $d.109
c0de76d4 c0de76d4       74     4         /tmp/rustcF3LqcJ/libledger_secure_sdk_sys-bd0b62138df877e8.rlib(196e657857525104-nbgl_use_case_nanos.o):(.text.displayAliasFullValue)
c0de76d4 c0de76d4        0     1                 $t.110
c0de76d5 c0de76d5       74     1                 displayAliasFullValue
c0de7744 c0de7744        0     1                 $d.111
c0de7748 c0de7748       1c     2         /tmp/rustcF3LqcJ/libledger_secure_sdk_sys-bd0b62138df877e8.rlib(196e657857525104-nbgl_use_case_nanos.o):(.text.reviewCallback)
c0de7748 c0de7748        0     1                 $t.112
c0de7749 c0de7749       1c     1                 reviewCallback
c0de7764 c0de7764       f4     4         /tmp/rustcF3LqcJ/libledger_secure_sdk_sys-bd0b62138df877e8.rlib(196e657857525104-nbgl_use_case_nanos.o):(.text.displayExtensionStep)
c0de7764 c0de7764        0     1                 $t.113
c0de7765 c0de7765       f4     1                 displayExtensionStep
c0de7844 c0de7844        0     1                 $d.114
c0de7858 c0de7858       74     4         /tmp/rustcF3LqcJ/libledger_secure_sdk_sys-bd0b62138df877e8.rlib(196e657857525104-nbgl_use_case_nanos.o):(.text.extensionNavigate)
c0de7858 c0de7858        0     1                 $t.115
c0de7859 c0de7859       74     1                 extensionNavigate
c0de78c8 c0de78c8        0     1                 $d.116
c0de78cc c0de78cc       10     4         /tmp/rustcF3LqcJ/libledger_secure_sdk_sys-bd0b62138df877e8.rlib(196e657857525104-nbgl_use_case_nanos.o):(.text.statusTickerCallback)
c0de78cc c0de78cc        0     1                 $t.117
c0de78cd c0de78cd       10     1                 statusTickerCallback
c0de78d8 c0de78d8        0     1                 $d.118
c0de78dc c0de78dc       64     4         /tmp/rustcF3LqcJ/libledger_secure_sdk_sys-bd0b62138df877e8.rlib(196e657857525104-nbgl_use_case_nanos.o):(.text.getChoiceName)
c0de78dc c0de78dc        0     1                 $t.119
c0de78dd c0de78dd       64     1                 getChoiceName
c0de7938 c0de7938        0     1                 $d.120
c0de7940 c0de7940       6c     4         /tmp/rustcF3LqcJ/libledger_secure_sdk_sys-bd0b62138df877e8.rlib(196e657857525104-nbgl_use_case_nanos.o):(.text.onChoiceSelected)
c0de7940 c0de7940        0     1                 $t.121
c0de7941 c0de7941       6c     1                 onChoiceSelected
c0de79a8 c0de79a8        0     1                 $d.122
c0de79ac c0de79ac       14     2         /tmp/rustcF3LqcJ/libledger_secure_sdk_sys-bd0b62138df877e8.rlib(196e657857525104-nbgl_use_case_nanos.o):(.text.OUTLINED_FUNCTION_0)
c0de79ac c0de79ac        0     1                 $t.137
c0de79ad c0de79ad       14     1                 OUTLINED_FUNCTION_0
c0de79c0 c0de79c0       16     2         /tmp/rustcF3LqcJ/libledger_secure_sdk_sys-bd0b62138df877e8.rlib(196e657857525104-nbgl_use_case_nanos.o):(.text.OUTLINED_FUNCTION_2)
c0de79c0 c0de79c0        0     1                 $t.139
c0de79c1 c0de79c1       16     1                 OUTLINED_FUNCTION_2
c0de79d6 c0de79d6        c     2         /tmp/rustcF3LqcJ/libledger_secure_sdk_sys-bd0b62138df877e8.rlib(196e657857525104-nbgl_use_case_nanos.o):(.text.OUTLINED_FUNCTION_4)
c0de79d6 c0de79d6        0     1                 $t.141
c0de79d7 c0de79d7        c     1                 OUTLINED_FUNCTION_4
c0de79e2 c0de79e2        8     2         /tmp/rustcF3LqcJ/libledger_secure_sdk_sys-bd0b62138df877e8.rlib(196e657857525104-nbgl_use_case_nanos.o):(.text.OUTLINED_FUNCTION_5)
c0de79e2 c0de79e2        0     1                 $t.142
c0de79e3 c0de79e3        8     1                 OUTLINED_FUNCTION_5
c0de79ea c0de79ea        6     2         /tmp/rustcF3LqcJ/libledger_secure_sdk_sys-bd0b62138df877e8.rlib(196e657857525104-nbgl_use_case_nanos.o):(.text.OUTLINED_FUNCTION_6)
c0de79ea c0de79ea        0     1                 $t.143
c0de79eb c0de79eb        6     1                 OUTLINED_FUNCTION_6
c0de79f0 c0de79f0        8     2         /tmp/rustcF3LqcJ/libledger_secure_sdk_sys-bd0b62138df877e8.rlib(196e657857525104-nbgl_use_case_nanos.o):(.text.OUTLINED_FUNCTION_7)
c0de79f0 c0de79f0        0     1                 $t.144
c0de79f1 c0de79f1        8     1                 OUTLINED_FUNCTION_7
c0de79f8 c0de79f8        a     2         /tmp/rustcF3LqcJ/libledger_secure_sdk_sys-bd0b62138df877e8.rlib(196e657857525104-nbgl_use_case_nanos.o):(.text.OUTLINED_FUNCTION_8)
c0de79f8 c0de79f8        0     1                 $t.145
c0de79f9 c0de79f9        a     1                 OUTLINED_FUNCTION_8
c0de7a02 c0de7a02        a     2         /tmp/rustcF3LqcJ/libledger_secure_sdk_sys-bd0b62138df877e8.rlib(196e657857525104-nbgl_use_case_nanos.o):(.text.OUTLINED_FUNCTION_9)
c0de7a02 c0de7a02        0     1                 $t.146
c0de7a03 c0de7a03        a     1                 OUTLINED_FUNCTION_9
c0de7a0c c0de7a0c        e     2         /tmp/rustcF3LqcJ/libledger_secure_sdk_sys-bd0b62138df877e8.rlib(196e657857525104-nbgl_use_case_nanos.o):(.text.OUTLINED_FUNCTION_10)
c0de7a0c c0de7a0c        0     1                 $t.147
c0de7a0d c0de7a0d        e     1                 OUTLINED_FUNCTION_10
c0de7a1a c0de7a1a       72     2         /tmp/rustcF3LqcJ/libledger_secure_sdk_sys-bd0b62138df877e8.rlib(196e657857525104-nbgl_step.o):(.text.nbgl_stepDrawText)
c0de7a1a c0de7a1a        0     1                 $t.0
c0de7a1b c0de7a1b       72     1                 nbgl_stepDrawText
c0de7a8c c0de7a8c       4c     4         /tmp/rustcF3LqcJ/libledger_secure_sdk_sys-bd0b62138df877e8.rlib(196e657857525104-nbgl_step.o):(.text.getFreeContext)
c0de7a8c c0de7a8c        0     1                 $t.1
c0de7a8d c0de7a8d       4c     1                 getFreeContext
c0de7ad4 c0de7ad4        0     1                 $d.2
c0de7ad8 c0de7ad8      1cc     4         /tmp/rustcF3LqcJ/libledger_secure_sdk_sys-bd0b62138df877e8.rlib(196e657857525104-nbgl_step.o):(.text.displayTextPage)
c0de7ad8 c0de7ad8        0     1                 $t.3
c0de7ad9 c0de7ad9      1cc     1                 displayTextPage
c0de7c9c c0de7c9c        0     1                 $d.4
c0de7ca4 c0de7ca4       7c     4         /tmp/rustcF3LqcJ/libledger_secure_sdk_sys-bd0b62138df877e8.rlib(196e657857525104-nbgl_step.o):(.text.nbgl_stepDrawCenteredInfo)
c0de7ca4 c0de7ca4        0     1                 $t.5
c0de7ca5 c0de7ca5       7c     1                 nbgl_stepDrawCenteredInfo
c0de7d1c c0de7d1c        0     1                 $d.6
c0de7d20 c0de7d20       6c     2         /tmp/rustcF3LqcJ/libledger_secure_sdk_sys-bd0b62138df877e8.rlib(196e657857525104-nbgl_step.o):(.text.actionCallback)
c0de7d20 c0de7d20        0     1                 $t.7
c0de7d21 c0de7d21       6c     1                 actionCallback
c0de7d8c c0de7d8c       38     2         /tmp/rustcF3LqcJ/libledger_secure_sdk_sys-bd0b62138df877e8.rlib(196e657857525104-nbgl_step.o):(.text.getNavigationInfo)
c0de7d8c c0de7d8c        0     1                 $t.8
c0de7d8d c0de7d8d       38     1                 getNavigationInfo
c0de7dc4 c0de7dc4       36     2         /tmp/rustcF3LqcJ/libledger_secure_sdk_sys-bd0b62138df877e8.rlib(196e657857525104-nbgl_step.o):(.text.nbgl_stepDrawMenuList)
c0de7dc4 c0de7dc4        0     1                 $t.9
c0de7dc5 c0de7dc5       36     1                 nbgl_stepDrawMenuList
c0de7dfc c0de7dfc       78     4         /tmp/rustcF3LqcJ/libledger_secure_sdk_sys-bd0b62138df877e8.rlib(196e657857525104-nbgl_step.o):(.text.displayMenuList)
c0de7dfc c0de7dfc        0     1                 $t.10
c0de7dfd c0de7dfd       78     1                 displayMenuList
c0de7e70 c0de7e70        0     1                 $d.11
c0de7e74 c0de7e74       7c     4         /tmp/rustcF3LqcJ/libledger_secure_sdk_sys-bd0b62138df877e8.rlib(196e657857525104-nbgl_step.o):(.text.nbgl_stepDrawSwitch)
c0de7e74 c0de7e74        0     1                 $t.13
c0de7e75 c0de7e75       7c     1                 nbgl_stepDrawSwitch
c0de7eec c0de7eec        0     1                 $d.14
c0de7ef0 c0de7ef0       18     2         /tmp/rustcF3LqcJ/libledger_secure_sdk_sys-bd0b62138df877e8.rlib(196e657857525104-nbgl_step.o):(.text.nbgl_stepRelease)
c0de7ef0 c0de7ef0        0     1                 $t.15
c0de7ef1 c0de7ef1       18     1                 nbgl_stepRelease
c0de7f08 c0de7f08       28     4         /tmp/rustcF3LqcJ/libledger_secure_sdk_sys-bd0b62138df877e8.rlib(196e657857525104-nbgl_step.o):(.text.getContextFromLayout)
c0de7f08 c0de7f08        0     1                 $t.16
c0de7f09 c0de7f09       28     1                 getContextFromLayout
c0de7f2c c0de7f2c        0     1                 $d.17
c0de7f30 c0de7f30       40     2         /tmp/rustcF3LqcJ/libledger_secure_sdk_sys-bd0b62138df877e8.rlib(196e657857525104-nbgl_step.o):(.text.menuListActionCallback)
c0de7f30 c0de7f30        0     1                 $t.18
c0de7f31 c0de7f31       40     1                 menuListActionCallback
c0de7f70 c0de7f70       8e     2         /tmp/rustcF3LqcJ/libledger_secure_sdk_sys-bd0b62138df877e8.rlib(196e657857525104-nbgl_step.o):(.text.OUTLINED_FUNCTION_0)
c0de7f70 c0de7f70        0     1                 $t.19
c0de7f71 c0de7f71       8e     1                 OUTLINED_FUNCTION_0
c0de7ffe c0de7ffe       4a     2         /tmp/rustcF3LqcJ/libledger_secure_sdk_sys-bd0b62138df877e8.rlib(196e657857525104-nbgl_step.o):(.text.OUTLINED_FUNCTION_1)
c0de7ffe c0de7ffe        0     1                 $t.20
c0de7fff c0de7fff       4a     1                 OUTLINED_FUNCTION_1
c0de8048 c0de8048       12     2         /tmp/rustcF3LqcJ/libledger_secure_sdk_sys-bd0b62138df877e8.rlib(196e657857525104-nbgl_step.o):(.text.OUTLINED_FUNCTION_2)
c0de8048 c0de8048        0     1                 $t.21
c0de8049 c0de8049       12     1                 OUTLINED_FUNCTION_2
c0de805a c0de805a        a     2         /tmp/rustcF3LqcJ/libledger_secure_sdk_sys-bd0b62138df877e8.rlib(196e657857525104-nbgl_step.o):(.text.OUTLINED_FUNCTION_3)
c0de805a c0de805a        0     1                 $t.22
c0de805b c0de805b        a     1                 OUTLINED_FUNCTION_3
c0de8064 c0de8064        6     2         /tmp/rustcF3LqcJ/libledger_secure_sdk_sys-bd0b62138df877e8.rlib(196e657857525104-nbgl_step.o):(.text.OUTLINED_FUNCTION_4)
c0de8064 c0de8064        0     1                 $t.23
c0de8065 c0de8065        6     1                 OUTLINED_FUNCTION_4
c0de806a c0de806a        e     2         /tmp/rustcF3LqcJ/libledger_secure_sdk_sys-bd0b62138df877e8.rlib(196e657857525104-nbgl_step.o):(.text.OUTLINED_FUNCTION_5)
c0de806a c0de806a        0     1                 $t.24
c0de806b c0de806b        e     1                 OUTLINED_FUNCTION_5
c0de8078 c0de8078       78     4         /tmp/rustcF3LqcJ/libledger_secure_sdk_sys-bd0b62138df877e8.rlib(196e657857525104-nbgl_layout_nanos.o):(.text.nbgl_layoutGet)
c0de8078 c0de8078        0     1                 $t.1
c0de8079 c0de8079       78     1                 nbgl_layoutGet
c0de80e8 c0de80e8        0     1                 $d.2
c0de80f0 c0de80f0       50     4         /tmp/rustcF3LqcJ/libledger_secure_sdk_sys-bd0b62138df877e8.rlib(196e657857525104-nbgl_layout_nanos.o):(.text.buttonCallback)
c0de80f0 c0de80f0        0     1                 $t.3
c0de80f1 c0de80f1       50     1                 buttonCallback
c0de813c c0de813c        0     1                 $d.4
c0de8140 c0de8140       bc     4         /tmp/rustcF3LqcJ/libledger_secure_sdk_sys-bd0b62138df877e8.rlib(196e657857525104-nbgl_layout_nanos.o):(.text.nbgl_layoutAddNavigation)
c0de8140 c0de8140        0     1                 $t.5
c0de8141 c0de8141       bc     1                 nbgl_layoutAddNavigation
c0de81ec c0de81ec        0     1                 $d.6
c0de81fc c0de81fc      388     4         /tmp/rustcF3LqcJ/libledger_secure_sdk_sys-bd0b62138df877e8.rlib(196e657857525104-nbgl_layout_nanos.o):(.text.nbgl_layoutAddText)
c0de81fc c0de81fc        0     1                 $t.7
c0de81fd c0de81fd      388     1                 nbgl_layoutAddText
c0de8580 c0de8580        0     1                 $d.8
c0de8584 c0de8584       a8     2         /tmp/rustcF3LqcJ/libledger_secure_sdk_sys-bd0b62138df877e8.rlib(196e657857525104-nbgl_layout_nanos.o):(.text.nbgl_layoutAddMenuList)
c0de8584 c0de8584        0     1                 $t.9
c0de8585 c0de8585       a8     1                 nbgl_layoutAddMenuList
c0de862c c0de862c      340     2         /tmp/rustcF3LqcJ/libledger_secure_sdk_sys-bd0b62138df877e8.rlib(196e657857525104-nbgl_layout_nanos.o):(.text.nbgl_layoutAddCenteredInfo)
c0de862c c0de862c        0     1                 $t.10
c0de862d c0de862d      340     1                 nbgl_layoutAddCenteredInfo
c0de896c c0de896c      1d0     4         /tmp/rustcF3LqcJ/libledger_secure_sdk_sys-bd0b62138df877e8.rlib(196e657857525104-nbgl_layout_nanos.o):(.text.nbgl_layoutAddSwitch)
c0de896c c0de896c        0     1                 $t.13
c0de896d c0de896d      1d0     1                 nbgl_layoutAddSwitch
c0de8b2c c0de8b2c        0     1                 $d.14
c0de8b3c c0de8b3c       10     2         /tmp/rustcF3LqcJ/libledger_secure_sdk_sys-bd0b62138df877e8.rlib(196e657857525104-nbgl_layout_nanos.o):(.text.nbgl_layoutDraw)
c0de8b3c c0de8b3c        0     1                 $t.15
c0de8b3d c0de8b3d       10     1                 nbgl_layoutDraw
c0de8b4c c0de8b4c       1a     2         /tmp/rustcF3LqcJ/libledger_secure_sdk_sys-bd0b62138df877e8.rlib(196e657857525104-nbgl_layout_nanos.o):(.text.nbgl_layoutRelease)
c0de8b4c c0de8b4c        0     1                 $t.16
c0de8b4d c0de8b4d       1a     1                 nbgl_layoutRelease
c0de8b66 c0de8b66       1a     2         /tmp/rustcF3LqcJ/libledger_secure_sdk_sys-bd0b62138df877e8.rlib(196e657857525104-nbgl_layout_nanos.o):(.text.OUTLINED_FUNCTION_1)
c0de8b66 c0de8b66        0     1                 $t.18
c0de8b67 c0de8b67       1a     1                 OUTLINED_FUNCTION_1
c0de8b80 c0de8b80       1a     2         /tmp/rustcF3LqcJ/libledger_secure_sdk_sys-bd0b62138df877e8.rlib(196e657857525104-nbgl_layout_nanos.o):(.text.OUTLINED_FUNCTION_2)
c0de8b80 c0de8b80        0     1                 $t.19
c0de8b81 c0de8b81       1a     1                 OUTLINED_FUNCTION_2
c0de8b9a c0de8b9a       12     2         /tmp/rustcF3LqcJ/libledger_secure_sdk_sys-bd0b62138df877e8.rlib(196e657857525104-nbgl_layout_nanos.o):(.text.OUTLINED_FUNCTION_3)
c0de8b9a c0de8b9a        0     1                 $t.20
c0de8b9b c0de8b9b       12     1                 OUTLINED_FUNCTION_3
c0de8bac c0de8bac        a     2         /tmp/rustcF3LqcJ/libledger_secure_sdk_sys-bd0b62138df877e8.rlib(196e657857525104-nbgl_layout_nanos.o):(.text.OUTLINED_FUNCTION_4)
c0de8bac c0de8bac        0     1                 $t.21
c0de8bad c0de8bad        a     1                 OUTLINED_FUNCTION_4
c0de8bb6 c0de8bb6        6     2         /tmp/rustcF3LqcJ/libledger_secure_sdk_sys-bd0b62138df877e8.rlib(196e657857525104-nbgl_layout_nanos.o):(.text.OUTLINED_FUNCTION_5)
c0de8bb6 c0de8bb6        0     1                 $t.22
c0de8bb7 c0de8bb7        6     1                 OUTLINED_FUNCTION_5
c0de8bbc c0de8bbc        8     2         /tmp/rustcF3LqcJ/libledger_secure_sdk_sys-bd0b62138df877e8.rlib(196e657857525104-nbgl_layout_nanos.o):(.text.OUTLINED_FUNCTION_6)
c0de8bbc c0de8bbc        0     1                 $t.23
c0de8bbd c0de8bbd        8     1                 OUTLINED_FUNCTION_6
c0de8bc4 c0de8bc4       10     2         /tmp/rustcF3LqcJ/libledger_secure_sdk_sys-bd0b62138df877e8.rlib(196e657857525104-nbgl_layout_nanos.o):(.text.OUTLINED_FUNCTION_7)
c0de8bc4 c0de8bc4        0     1                 $t.24
c0de8bc5 c0de8bc5       10     1                 OUTLINED_FUNCTION_7
c0de8bd4 c0de8bd4        6     2         /tmp/rustcF3LqcJ/libledger_secure_sdk_sys-bd0b62138df877e8.rlib(196e657857525104-nbgl_layout_nanos.o):(.text.OUTLINED_FUNCTION_8)
c0de8bd4 c0de8bd4        0     1                 $t.25
c0de8bd5 c0de8bd5        6     1                 OUTLINED_FUNCTION_8
c0de8bda c0de8bda        e     2         /tmp/rustcF3LqcJ/libledger_secure_sdk_sys-bd0b62138df877e8.rlib(196e657857525104-nbgl_layout_nanos.o):(.text.OUTLINED_FUNCTION_9)
c0de8bda c0de8bda        0     1                 $t.26
c0de8bdb c0de8bdb        e     1                 OUTLINED_FUNCTION_9
c0de8be8 c0de8be8      324     4         /tmp/rustcF3LqcJ/libledger_secure_sdk_sys-bd0b62138df877e8.rlib(dbe27254336b5a6c-os_printf.o):(.text.snprintf)
c0de8be8 c0de8be8        0     1                 $t.0
c0de8be9 c0de8be9      324     1                 snprintf
c0de8ef8 c0de8ef8        0     1                 $d.1
c0de8f0c c0de8f0c        a     1         /tmp/rustcF3LqcJ/libledger_secure_sdk_sys-bd0b62138df877e8.rlib(a8c7b1d3d0023354-nbgl_stubs.o):(.text.nbgl_refresh)
c0de8f0c c0de8f0c        0     1                 $t.0
c0de8f0d c0de8f0d        0     1                 nbgl_refresh
c0de8f16 c0de8f16        a     1         /tmp/rustcF3LqcJ/libledger_secure_sdk_sys-bd0b62138df877e8.rlib(a8c7b1d3d0023354-nbgl_stubs.o):(.text.nbgl_objAllowDrawing)
c0de8f16 c0de8f16        0     1                 $t.7
c0de8f17 c0de8f17        0     1                 nbgl_objAllowDrawing
c0de8f20 c0de8f20        a     1         /tmp/rustcF3LqcJ/libledger_secure_sdk_sys-bd0b62138df877e8.rlib(a8c7b1d3d0023354-nbgl_stubs.o):(.text.nbgl_screenSet)
c0de8f20 c0de8f20        0     1                 $t.10
c0de8f21 c0de8f21        0     1                 nbgl_screenSet
c0de8f2a c0de8f2a        a     1         /tmp/rustcF3LqcJ/libledger_secure_sdk_sys-bd0b62138df877e8.rlib(a8c7b1d3d0023354-nbgl_stubs.o):(.text.nbgl_screenPush)
c0de8f2a c0de8f2a        0     1                 $t.11
c0de8f2b c0de8f2b        0     1                 nbgl_screenPush
c0de8f34 c0de8f34        a     1         /tmp/rustcF3LqcJ/libledger_secure_sdk_sys-bd0b62138df877e8.rlib(a8c7b1d3d0023354-nbgl_stubs.o):(.text.nbgl_screenRedraw)
c0de8f34 c0de8f34        0     1                 $t.12
c0de8f35 c0de8f35        0     1                 nbgl_screenRedraw
c0de8f3e c0de8f3e        a     1         /tmp/rustcF3LqcJ/libledger_secure_sdk_sys-bd0b62138df877e8.rlib(a8c7b1d3d0023354-nbgl_stubs.o):(.text.nbgl_screenPop)
c0de8f3e c0de8f3e        0     1                 $t.13
c0de8f3f c0de8f3f        0     1                 nbgl_screenPop
c0de8f48 c0de8f48        a     1         /tmp/rustcF3LqcJ/libledger_secure_sdk_sys-bd0b62138df877e8.rlib(a8c7b1d3d0023354-nbgl_stubs.o):(.text.nbgl_screenHandler)
c0de8f48 c0de8f48        0     1                 $t.22
c0de8f49 c0de8f49        0     1                 nbgl_screenHandler
c0de8f52 c0de8f52        a     1         /tmp/rustcF3LqcJ/libledger_secure_sdk_sys-bd0b62138df877e8.rlib(a8c7b1d3d0023354-nbgl_stubs.o):(.text.nbgl_objPoolGet)
c0de8f52 c0de8f52        0     1                 $t.23
c0de8f53 c0de8f53        0     1                 nbgl_objPoolGet
c0de8f5c c0de8f5c        a     1         /tmp/rustcF3LqcJ/libledger_secure_sdk_sys-bd0b62138df877e8.rlib(a8c7b1d3d0023354-nbgl_stubs.o):(.text.nbgl_containerPoolGet)
c0de8f5c c0de8f5c        0     1                 $t.25
c0de8f5d c0de8f5d        0     1                 nbgl_containerPoolGet
c0de8f66 c0de8f66        a     1         /tmp/rustcF3LqcJ/libledger_secure_sdk_sys-bd0b62138df877e8.rlib(a8c7b1d3d0023354-nbgl_stubs.o):(.text.nbgl_getFont)
c0de8f66 c0de8f66        0     1                 $t.27
c0de8f67 c0de8f67        0     1                 nbgl_getFont
c0de8f70 c0de8f70        a     1         /tmp/rustcF3LqcJ/libledger_secure_sdk_sys-bd0b62138df877e8.rlib(a8c7b1d3d0023354-nbgl_stubs.o):(.text.nbgl_getFontLineHeight)
c0de8f70 c0de8f70        0     1                 $t.29
c0de8f71 c0de8f71        0     1                 nbgl_getFontLineHeight
c0de8f7a c0de8f7a        a     1         /tmp/rustcF3LqcJ/libledger_secure_sdk_sys-bd0b62138df877e8.rlib(a8c7b1d3d0023354-nbgl_stubs.o):(.text.nbgl_getTextMaxLenAndWidth)
c0de8f7a c0de8f7a        0     1                 $t.34
c0de8f7b c0de8f7b        0     1                 nbgl_getTextMaxLenAndWidth
c0de8f84 c0de8f84        a     1         /tmp/rustcF3LqcJ/libledger_secure_sdk_sys-bd0b62138df877e8.rlib(a8c7b1d3d0023354-nbgl_stubs.o):(.text.nbgl_getTextNbLinesInWidth)
c0de8f84 c0de8f84        0     1                 $t.35
c0de8f85 c0de8f85        0     1                 nbgl_getTextNbLinesInWidth
c0de8f8e c0de8f8e        a     1         /tmp/rustcF3LqcJ/libledger_secure_sdk_sys-bd0b62138df877e8.rlib(a8c7b1d3d0023354-nbgl_stubs.o):(.text.nbgl_getTextNbPagesInWidth)
c0de8f8e c0de8f8e        0     1                 $t.36
c0de8f8f c0de8f8f        0     1                 nbgl_getTextNbPagesInWidth
c0de8f98 c0de8f98        a     1         /tmp/rustcF3LqcJ/libledger_secure_sdk_sys-bd0b62138df877e8.rlib(a8c7b1d3d0023354-nbgl_stubs.o):(.text.nbgl_getTextWidth)
c0de8f98 c0de8f98        0     1                 $t.37
c0de8f99 c0de8f99        0     1                 nbgl_getTextWidth
c0de8fa2 c0de8fa2        a     1         /tmp/rustcF3LqcJ/libledger_secure_sdk_sys-bd0b62138df877e8.rlib(a8c7b1d3d0023354-nbgl_stubs.o):(.text.nbgl_getTextMaxLenInNbLines)
c0de8fa2 c0de8fa2        0     1                 $t.38
c0de8fa3 c0de8fa3        0     1                 nbgl_getTextMaxLenInNbLines
c0de8fac c0de8fac        a     1         /tmp/rustcF3LqcJ/libledger_secure_sdk_sys-bd0b62138df877e8.rlib(a8c7b1d3d0023354-nbgl_stubs.o):(.text.nbgl_textReduceOnNbLines)
c0de8fac c0de8fac        0     1                 $t.39
c0de8fad c0de8fad        0     1                 nbgl_textReduceOnNbLines
c0de8fb6 c0de8fb6        a     1         /tmp/rustcF3LqcJ/libledger_secure_sdk_sys-bd0b62138df877e8.rlib(a8c7b1d3d0023354-nbgl_stubs.o):(.text.nbgl_buttonsHandler)
c0de8fb6 c0de8fb6        0     1                 $t.45
c0de8fb7 c0de8fb7        0     1                 nbgl_buttonsHandler
c0de8fc0 c0de8fc0       10     4         /tmp/rustcF3LqcJ/libledger_secure_sdk_sys-bd0b62138df877e8.rlib(a8c7b1d3d0023354-nbgl_stubs.o):(.text.pic_init)
c0de8fc0 c0de8fc0        0     1                 $t.51
c0de8fc1 c0de8fc1        0     1                 pic_init
c0de8fc9 c0de8fc9        0     1                 nbgl_trampoline_helper
c0de8fcc c0de8fcc        0     1                 $d.52
c0de8fd0 c0de8fd0       28     2         /app/target/nanosplus/release/deps/libcompiler_builtins-4940a827e696cbf2.rlib(compiler_builtins-4940a827e696cbf2.compiler_builtins.f3144e1f1c0dd2b9-cgu.0.rcgu.o):(.text._ZN17compiler_builtins3int5shift4Ashl4ashl17h34a54b4ab9c67711E)
c0de8fd0 c0de8fd0        0     1                 $t
c0de8fd1 c0de8fd1       28     1                 compiler_builtins::int::shift::Ashl::ashl::h34a54b4ab9c67711
c0de8ff8 c0de8ff8      1a2     2         /app/target/nanosplus/release/deps/libcompiler_builtins-4940a827e696cbf2.rlib(compiler_builtins-4940a827e696cbf2.compiler_builtins.f3144e1f1c0dd2b9-cgu.0.rcgu.o):(.text._ZN17compiler_builtins3int19specialized_div_rem11u64_div_rem17he58a75b8275aabc3E)
c0de8ff8 c0de8ff8        0     1                 $t
c0de8ff9 c0de8ff9      1a2     1                 compiler_builtins::int::specialized_div_rem::u64_div_rem::he58a75b8275aabc3
c0de919a c0de919a        4     2         /app/target/nanosplus/release/deps/libcompiler_builtins-4940a827e696cbf2.rlib(compiler_builtins-4940a827e696cbf2.compiler_builtins.f3144e1f1c0dd2b9-cgu.0.rcgu.o):(.text.__aeabi_llsl)
c0de919a c0de919a        0     1                 $t
c0de919b c0de919b        4     1                 __aeabi_llsl
c0de919e c0de919e       24     2         /app/target/nanosplus/release/deps/libcompiler_builtins-4940a827e696cbf2.rlib(compiler_builtins-4940a827e696cbf2.compiler_builtins.f3144e1f1c0dd2b9-cgu.0.rcgu.o):(.text._ZN17compiler_builtins3int4udiv12__udivmoddi417h6aa0ccaada3a2452E)
c0de919e c0de919e        0     1                 $t
c0de919f c0de919f       24     1                 compiler_builtins::int::udiv::__udivmoddi4::h6aa0ccaada3a2452
c0de91c2 c0de91c2       10     2         /app/target/nanosplus/release/deps/libcompiler_builtins-4940a827e696cbf2.rlib(compiler_builtins-4940a827e696cbf2.compiler_builtins.f3144e1f1c0dd2b9-cgu.0.rcgu.o):(.text.__udivmoddi4)
c0de91c2 c0de91c2        0     1                 $t
c0de91c3 c0de91c3       10     1                 __udivmoddi4
c0de91d2 c0de91d2       88     2         /app/target/nanosplus/release/deps/libcompiler_builtins-4940a827e696cbf2.rlib(compiler_builtins-4940a827e696cbf2.compiler_builtins.f3144e1f1c0dd2b9-cgu.0.rcgu.o):(.text._ZN17compiler_builtins3mem6memcpy17hb578bac52ed7c954E)
c0de91d2 c0de91d2        0     1                 $t
c0de91d3 c0de91d3       88     1                 compiler_builtins::mem::memcpy::hb578bac52ed7c954
c0de925a c0de925a      134     2         /app/target/nanosplus/release/deps/libcompiler_builtins-4940a827e696cbf2.rlib(compiler_builtins-4940a827e696cbf2.compiler_builtins.f3144e1f1c0dd2b9-cgu.0.rcgu.o):(.text._ZN17compiler_builtins3mem7memmove17h06e18dfb47e8a651E)
c0de925a c0de925a        0     1                 $t
c0de925b c0de925b      134     1                 compiler_builtins::mem::memmove::h06e18dfb47e8a651
c0de938e c0de938e       5a     2         /app/target/nanosplus/release/deps/libcompiler_builtins-4940a827e696cbf2.rlib(compiler_builtins-4940a827e696cbf2.compiler_builtins.f3144e1f1c0dd2b9-cgu.0.rcgu.o):(.text._ZN17compiler_builtins3mem6memset17h242821867b7e004fE)
c0de938e c0de938e        0     1                 $t
c0de938f c0de938f       5a     1                 compiler_builtins::mem::memset::h242821867b7e004f
c0de93e8 c0de93e8       1c     2         /app/target/nanosplus/release/deps/libcompiler_builtins-4940a827e696cbf2.rlib(compiler_builtins-4940a827e696cbf2.compiler_builtins.f3144e1f1c0dd2b9-cgu.0.rcgu.o):(.text._ZN17compiler_builtins3mem6memcmp17he8e32cdab7e87b74E)
c0de93e8 c0de93e8        0     1                 $t
c0de93e9 c0de93e9       1c     1                 compiler_builtins::mem::memcmp::he8e32cdab7e87b74
c0de9404 c0de9404        4     2         /app/target/nanosplus/release/deps/libcompiler_builtins-4940a827e696cbf2.rlib(compiler_builtins-4940a827e696cbf2.compiler_builtins.f3144e1f1c0dd2b9-cgu.0.rcgu.o):(.text.memcmp)
c0de9404 c0de9404        0     1                 $t
c0de9405 c0de9405        4     1                 memcmp
c0de9408 c0de9408       16     2         /app/target/nanosplus/release/deps/libcompiler_builtins-4940a827e696cbf2.rlib(compiler_builtins-4940a827e696cbf2.compiler_builtins.f3144e1f1c0dd2b9-cgu.0.rcgu.o):(.text.__aeabi_uldivmod)
c0de9408 c0de9408        0     1                 $t
c0de9409 c0de9409       16     1                 __aeabi_uldivmod
c0de941e c0de941e        4     2         /app/target/nanosplus/release/deps/libcompiler_builtins-4940a827e696cbf2.rlib(compiler_builtins-4940a827e696cbf2.compiler_builtins.f3144e1f1c0dd2b9-cgu.0.rcgu.o):(.text.__aeabi_memcpy)
c0de941e c0de941e        0     1                 $t
c0de941f c0de941f        4     1                 __aeabi_memcpy
c0de9422 c0de9422       10     2         /app/target/nanosplus/release/deps/libcompiler_builtins-4940a827e696cbf2.rlib(compiler_builtins-4940a827e696cbf2.compiler_builtins.f3144e1f1c0dd2b9-cgu.0.rcgu.o):(.text._ZN17compiler_builtins3arm15__aeabi_memcpy417h3c1a197e159b48cdE)
c0de9422 c0de9422        0     1                 $t
c0de9423 c0de9423       10     1                 compiler_builtins::arm::__aeabi_memcpy4::h3c1a197e159b48cd
c0de9432 c0de9432        4     2         /app/target/nanosplus/release/deps/libcompiler_builtins-4940a827e696cbf2.rlib(compiler_builtins-4940a827e696cbf2.compiler_builtins.f3144e1f1c0dd2b9-cgu.0.rcgu.o):(.text.__aeabi_memcpy4)
c0de9432 c0de9432        0     1                 $t
c0de9433 c0de9433        4     1                 __aeabi_memcpy4
c0de9436 c0de9436        4     2         /app/target/nanosplus/release/deps/libcompiler_builtins-4940a827e696cbf2.rlib(compiler_builtins-4940a827e696cbf2.compiler_builtins.f3144e1f1c0dd2b9-cgu.0.rcgu.o):(.text.__aeabi_memcpy8)
c0de9436 c0de9436        0     1                 $t
c0de9437 c0de9437        4     1                 __aeabi_memcpy8
c0de943a c0de943a        4     2         /app/target/nanosplus/release/deps/libcompiler_builtins-4940a827e696cbf2.rlib(compiler_builtins-4940a827e696cbf2.compiler_builtins.f3144e1f1c0dd2b9-cgu.0.rcgu.o):(.text.__aeabi_memmove)
c0de943a c0de943a        0     1                 $t
c0de943b c0de943b        4     1                 __aeabi_memmove
c0de943e c0de943e        4     2         /app/target/nanosplus/release/deps/libcompiler_builtins-4940a827e696cbf2.rlib(compiler_builtins-4940a827e696cbf2.compiler_builtins.f3144e1f1c0dd2b9-cgu.0.rcgu.o):(.text.__aeabi_memset)
c0de943e c0de943e        0     1                 $t
c0de943f c0de943f        4     1                 __aeabi_memset
c0de9442 c0de9442       1a     2         /app/target/nanosplus/release/deps/libcompiler_builtins-4940a827e696cbf2.rlib(compiler_builtins-4940a827e696cbf2.compiler_builtins.f3144e1f1c0dd2b9-cgu.0.rcgu.o):(.text._ZN17compiler_builtins3arm15__aeabi_memset417h96f1f143d8c0b540E)
c0de9442 c0de9442        0     1                 $t
c0de9443 c0de9443       1a     1                 compiler_builtins::arm::__aeabi_memset4::h96f1f143d8c0b540
c0de945c c0de945c        8     2         /app/target/nanosplus/release/deps/libcompiler_builtins-4940a827e696cbf2.rlib(compiler_builtins-4940a827e696cbf2.compiler_builtins.f3144e1f1c0dd2b9-cgu.0.rcgu.o):(.text._ZN17compiler_builtins3arm14__aeabi_memclr17h95e9f47a7ccf557eE)
c0de945c c0de945c        0     1                 $t
c0de945d c0de945d        8     1                 compiler_builtins::arm::__aeabi_memclr::h95e9f47a7ccf557e
c0de9464 c0de9464        4     2         /app/target/nanosplus/release/deps/libcompiler_builtins-4940a827e696cbf2.rlib(compiler_builtins-4940a827e696cbf2.compiler_builtins.f3144e1f1c0dd2b9-cgu.0.rcgu.o):(.text.__aeabi_memclr)
c0de9464 c0de9464        0     1                 $t
c0de9465 c0de9465        4     1                 __aeabi_memclr
c0de9468 c0de9468        6     2         /app/target/nanosplus/release/deps/libcompiler_builtins-4940a827e696cbf2.rlib(compiler_builtins-4940a827e696cbf2.compiler_builtins.f3144e1f1c0dd2b9-cgu.0.rcgu.o):(.text._ZN17compiler_builtins3arm15__aeabi_memclr417h9e62f46eb2ededf9E)
c0de9468 c0de9468        0     1                 $t
c0de9469 c0de9469        6     1                 compiler_builtins::arm::__aeabi_memclr4::h9e62f46eb2ededf9
c0de946e c0de946e        4     2         /app/target/nanosplus/release/deps/libcompiler_builtins-4940a827e696cbf2.rlib(compiler_builtins-4940a827e696cbf2.compiler_builtins.f3144e1f1c0dd2b9-cgu.0.rcgu.o):(.text.__aeabi_memclr4)
c0de946e c0de946e        0     1                 $t
c0de946f c0de946f        4     1                 __aeabi_memclr4
c0de9472 c0de9472        6     2         /app/target/nanosplus/release/deps/libcompiler_builtins-4940a827e696cbf2.rlib(compiler_builtins-4940a827e696cbf2.compiler_builtins.f3144e1f1c0dd2b9-cgu.0.rcgu.o):(.text._ZN17compiler_builtins3arm15__aeabi_memclr817ha134f57356b58ac8E)
c0de9472 c0de9472        0     1                 $t
c0de9473 c0de9473        6     1                 compiler_builtins::arm::__aeabi_memclr8::ha134f57356b58ac8
c0de9478 c0de9478        4     2         /app/target/nanosplus/release/deps/libcompiler_builtins-4940a827e696cbf2.rlib(compiler_builtins-4940a827e696cbf2.compiler_builtins.f3144e1f1c0dd2b9-cgu.0.rcgu.o):(.text.__aeabi_memclr8)
c0de9478 c0de9478        0     1                 $t
c0de9479 c0de9479        4     1                 __aeabi_memclr8
c0de947c c0de947c        6     2         /app/target/nanosplus/release/deps/libcompiler_builtins-4940a827e696cbf2.rlib(compiler_builtins-4940a827e696cbf2.compiler_builtins.f3144e1f1c0dd2b9-cgu.0.rcgu.o):(.text.OUTLINED_FUNCTION_162)
c0de947c c0de947c        0     1                 $t
c0de947d c0de947d        6     1                 OUTLINED_FUNCTION_162
c0de9482 c0de9482        6     2         /app/target/nanosplus/release/deps/libcompiler_builtins-4940a827e696cbf2.rlib(compiler_builtins-4940a827e696cbf2.compiler_builtins.f3144e1f1c0dd2b9-cgu.0.rcgu.o):(.text.OUTLINED_FUNCTION_189)
c0de9482 c0de9482        0     1                 $t
c0de9483 c0de9483        6     1                 OUTLINED_FUNCTION_189
c0de9488 c0de9488        6     2         /app/target/nanosplus/release/deps/libcompiler_builtins-4940a827e696cbf2.rlib(compiler_builtins-4940a827e696cbf2.compiler_builtins.f3144e1f1c0dd2b9-cgu.0.rcgu.o):(.text.OUTLINED_FUNCTION_191)
c0de9488 c0de9488        0     1                 $t
c0de9489 c0de9489        6     1                 OUTLINED_FUNCTION_191
c0de948e c0de948e        8     2         /app/target/nanosplus/release/deps/libcompiler_builtins-4940a827e696cbf2.rlib(compiler_builtins-4940a827e696cbf2.compiler_builtins.f3144e1f1c0dd2b9-cgu.0.rcgu.o):(.text.OUTLINED_FUNCTION_269)
c0de948e c0de948e        0     1                 $t
c0de948f c0de948f        8     1                 OUTLINED_FUNCTION_269
c0de9496 c0de9496       10     2         /app/target/nanosplus/release/deps/libcompiler_builtins-4940a827e696cbf2.rlib(compiler_builtins-4940a827e696cbf2.compiler_builtins.f3144e1f1c0dd2b9-cgu.0.rcgu.o):(.text.OUTLINED_FUNCTION_277)
c0de9496 c0de9496        0     1                 $t
c0de9497 c0de9497       10     1                 OUTLINED_FUNCTION_277
c0de94a6 c0de94a6        8     2         /app/target/nanosplus/release/deps/libcompiler_builtins-4940a827e696cbf2.rlib(compiler_builtins-4940a827e696cbf2.compiler_builtins.f3144e1f1c0dd2b9-cgu.0.rcgu.o):(.text.OUTLINED_FUNCTION_292)
c0de94a6 c0de94a6        0     1                 $t
c0de94a7 c0de94a7        8     1                 OUTLINED_FUNCTION_292
c0de94ae c0de94ae        a     2         /app/target/nanosplus/release/deps/libcompiler_builtins-4940a827e696cbf2.rlib(compiler_builtins-4940a827e696cbf2.compiler_builtins.f3144e1f1c0dd2b9-cgu.0.rcgu.o):(.text.OUTLINED_FUNCTION_303)
c0de94ae c0de94ae        0     1                 $t
c0de94af c0de94af        a     1                 OUTLINED_FUNCTION_303
c0de94b8 c0de94b8        a     2         /app/target/nanosplus/release/deps/libcompiler_builtins-4940a827e696cbf2.rlib(compiler_builtins-4940a827e696cbf2.compiler_builtins.f3144e1f1c0dd2b9-cgu.0.rcgu.o):(.text.OUTLINED_FUNCTION_311)
c0de94b8 c0de94b8        0     1                 $t
c0de94b9 c0de94b9        a     1                 OUTLINED_FUNCTION_311
c0de94c2 c0de94c2      13e     1         . = ALIGN ( PAGE_SIZE )
c0de9600 c0de9600        0     1         _etext = .
c0de9600 c0de9600        0     1 _reloc_size = SIZEOF ( .rel.rodata ) + SIZEOF ( .rel.data ) + SIZEOF ( .rel.nvm_data )
c0de9600 c0de9600      200   512 .rel_flash
c0de9600 c0de9600        0     1         _relocs = .
c0de9600 c0de9600      188     1         . += _reloc_size
c0de9788 c0de9788       78     1         . = ALIGN ( PAGE_SIZE )
c0de9800 c0de9800        0     1         _erelocs = .
c0de9800 c0de9800        0     1         . = ALIGN ( PAGE_SIZE )
c0de9800 c0de9800        0     1         _nvram_data = .
c0de9800 c0de9800      e00   512 .rodata
c0de9800 c0de9800        0     1         . = ALIGN ( PAGE_SIZE )
c0de9800 c0de9800        0     1         _rodata = .
c0de9800 c0de9800        0     1         _rodata_src = .
c0de9800 c0de9800       18     4         /app/target/nanosplus/release/deps/legder_xelis-53a0edecdc8ef744.legder_xelis.24eea2af218bcfe3-cgu.0.rcgu.o:(.rodata..Lanon.6b014ad84d8302ab455e1b726636eb9c.7)
c0de9800 c0de9800       18     1                 .Lanon.6b014ad84d8302ab455e1b726636eb9c.7
c0de9818 c0de9818       37     1         /app/target/nanosplus/release/deps/legder_xelis-53a0edecdc8ef744.legder_xelis.24eea2af218bcfe3-cgu.0.rcgu.o:(.rodata..Lanon.6b014ad84d8302ab455e1b726636eb9c.8)
c0de9818 c0de9818       37     1                 .Lanon.6b014ad84d8302ab455e1b726636eb9c.8
c0de9850 c0de9850       10     4         /app/target/nanosplus/release/deps/legder_xelis-53a0edecdc8ef744.legder_xelis.24eea2af218bcfe3-cgu.0.rcgu.o:(.rodata..Lanon.6b014ad84d8302ab455e1b726636eb9c.12)
c0de9850 c0de9850       10     1                 .Lanon.6b014ad84d8302ab455e1b726636eb9c.12
c0de9860 c0de9860       10     4         /app/target/nanosplus/release/deps/legder_xelis-53a0edecdc8ef744.legder_xelis.24eea2af218bcfe3-cgu.0.rcgu.o:(.rodata..Lanon.6b014ad84d8302ab455e1b726636eb9c.20)
c0de9860 c0de9860       10     1                 .Lanon.6b014ad84d8302ab455e1b726636eb9c.20
c0de9870 c0de9870       10     4         /app/target/nanosplus/release/deps/legder_xelis-53a0edecdc8ef744.legder_xelis.24eea2af218bcfe3-cgu.0.rcgu.o:(.rodata..Lanon.6b014ad84d8302ab455e1b726636eb9c.23)
c0de9870 c0de9870       10     1                 .Lanon.6b014ad84d8302ab455e1b726636eb9c.23
c0de9880 c0de9880       11     1         /app/target/nanosplus/release/deps/legder_xelis-53a0edecdc8ef744.legder_xelis.24eea2af218bcfe3-cgu.0.rcgu.o:(.rodata..Lanon.6b014ad84d8302ab455e1b726636eb9c.34)
c0de9880 c0de9880       11     1                 .Lanon.6b014ad84d8302ab455e1b726636eb9c.34
c0de9891 c0de9891        3     1         /app/target/nanosplus/release/deps/legder_xelis-53a0edecdc8ef744.legder_xelis.24eea2af218bcfe3-cgu.0.rcgu.o:(.rodata..Lanon.6b014ad84d8302ab455e1b726636eb9c.39)
c0de9891 c0de9891        3     1                 .Lanon.6b014ad84d8302ab455e1b726636eb9c.39
c0de9894 c0de9894        3     1         /app/target/nanosplus/release/deps/legder_xelis-53a0edecdc8ef744.legder_xelis.24eea2af218bcfe3-cgu.0.rcgu.o:(.rodata..Lanon.6b014ad84d8302ab455e1b726636eb9c.40)
c0de9894 c0de9894        3     1                 .Lanon.6b014ad84d8302ab455e1b726636eb9c.40
c0de9897 c0de9897       15     1         /app/target/nanosplus/release/deps/legder_xelis-53a0edecdc8ef744.legder_xelis.24eea2af218bcfe3-cgu.0.rcgu.o:(.rodata..Lanon.6b014ad84d8302ab455e1b726636eb9c.41)
c0de98ac c0de98ac      140     4         <internal>:(.rodata.cst32)
c0de99ec c0de99ec       14     4         /app/target/nanosplus/release/deps/legder_xelis-53a0edecdc8ef744.legder_xelis.24eea2af218bcfe3-cgu.0.rcgu.o:(.rodata..Lanon.6b014ad84d8302ab455e1b726636eb9c.52)
c0de99ec c0de99ec       14     1                 .Lanon.6b014ad84d8302ab455e1b726636eb9c.52
c0de9a00 c0de9a00        b     1         /app/target/nanosplus/release/deps/legder_xelis-53a0edecdc8ef744.legder_xelis.24eea2af218bcfe3-cgu.0.rcgu.o:(.rodata..Lanon.6b014ad84d8302ab455e1b726636eb9c.55)
c0de9a0b c0de9a0b        3     1         /app/target/nanosplus/release/deps/legder_xelis-53a0edecdc8ef744.legder_xelis.24eea2af218bcfe3-cgu.0.rcgu.o:(.rodata..Lanon.6b014ad84d8302ab455e1b726636eb9c.56)
c0de9a10 c0de9a10       10     4         /app/target/nanosplus/release/deps/legder_xelis-53a0edecdc8ef744.legder_xelis.24eea2af218bcfe3-cgu.0.rcgu.o:(.rodata..Lanon.6b014ad84d8302ab455e1b726636eb9c.57)
c0de9a10 c0de9a10       10     1                 .Lanon.6b014ad84d8302ab455e1b726636eb9c.57
c0de9a20 c0de9a20        9     1         /app/target/nanosplus/release/deps/legder_xelis-53a0edecdc8ef744.legder_xelis.24eea2af218bcfe3-cgu.0.rcgu.o:(.rodata..Lanon.6b014ad84d8302ab455e1b726636eb9c.59)
c0de9a2c c0de9a2c       10     4         /app/target/nanosplus/release/deps/legder_xelis-53a0edecdc8ef744.legder_xelis.24eea2af218bcfe3-cgu.0.rcgu.o:(.rodata..Lanon.6b014ad84d8302ab455e1b726636eb9c.60)
c0de9a2c c0de9a2c       10     1                 .Lanon.6b014ad84d8302ab455e1b726636eb9c.60
c0de9a3c c0de9a3c       10     4         /app/target/nanosplus/release/deps/legder_xelis-53a0edecdc8ef744.legder_xelis.24eea2af218bcfe3-cgu.0.rcgu.o:(.rodata..Lanon.6b014ad84d8302ab455e1b726636eb9c.61)
c0de9a3c c0de9a3c       10     1                 .Lanon.6b014ad84d8302ab455e1b726636eb9c.61
c0de9a4c c0de9a4c       10     4         /app/target/nanosplus/release/deps/legder_xelis-53a0edecdc8ef744.legder_xelis.24eea2af218bcfe3-cgu.0.rcgu.o:(.rodata..Lanon.6b014ad84d8302ab455e1b726636eb9c.62)
c0de9a4c c0de9a4c       10     1                 .Lanon.6b014ad84d8302ab455e1b726636eb9c.62
c0de9a5c c0de9a5c       18     4         /app/target/nanosplus/release/deps/legder_xelis-53a0edecdc8ef744.legder_xelis.24eea2af218bcfe3-cgu.0.rcgu.o:(.rodata..Lanon.6b014ad84d8302ab455e1b726636eb9c.63)
c0de9a5c c0de9a5c       18     1                 .Lanon.6b014ad84d8302ab455e1b726636eb9c.63
c0de9a74 c0de9a74       10     4         /app/target/nanosplus/release/deps/legder_xelis-53a0edecdc8ef744.legder_xelis.24eea2af218bcfe3-cgu.0.rcgu.o:(.rodata..Lanon.6b014ad84d8302ab455e1b726636eb9c.64)
c0de9a74 c0de9a74       10     1                 .Lanon.6b014ad84d8302ab455e1b726636eb9c.64
c0de9a84 c0de9a84       10     4         /app/target/nanosplus/release/deps/legder_xelis-53a0edecdc8ef744.legder_xelis.24eea2af218bcfe3-cgu.0.rcgu.o:(.rodata..Lanon.6b014ad84d8302ab455e1b726636eb9c.65)
c0de9a84 c0de9a84       10     1                 .Lanon.6b014ad84d8302ab455e1b726636eb9c.65
c0de9a94 c0de9a94       10     4         /app/target/nanosplus/release/deps/legder_xelis-53a0edecdc8ef744.legder_xelis.24eea2af218bcfe3-cgu.0.rcgu.o:(.rodata..Lanon.6b014ad84d8302ab455e1b726636eb9c.66)
c0de9a94 c0de9a94       10     1                 .Lanon.6b014ad84d8302ab455e1b726636eb9c.66
c0de9aa4 c0de9aa4       80     1         /app/target/nanosplus/release/deps/legder_xelis-53a0edecdc8ef744.legder_xelis.24eea2af218bcfe3-cgu.0.rcgu.o:(.rodata..Lanon.6b014ad84d8302ab455e1b726636eb9c.70)
c0de9aa4 c0de9aa4       80     1                 .Lanon.6b014ad84d8302ab455e1b726636eb9c.70
c0de9b24 c0de9b24       80     1         /app/target/nanosplus/release/deps/legder_xelis-53a0edecdc8ef744.legder_xelis.24eea2af218bcfe3-cgu.0.rcgu.o:(.rodata..Lanon.6b014ad84d8302ab455e1b726636eb9c.71)
c0de9b24 c0de9b24       80     1                 .Lanon.6b014ad84d8302ab455e1b726636eb9c.71
c0de9ba4 c0de9ba4       80     4         /app/target/nanosplus/release/deps/legder_xelis-53a0edecdc8ef744.legder_xelis.24eea2af218bcfe3-cgu.0.rcgu.o:(.rodata..Lanon.6b014ad84d8302ab455e1b726636eb9c.91)
c0de9ba4 c0de9ba4       80     1                 .Lanon.6b014ad84d8302ab455e1b726636eb9c.91
c0de9c24 c0de9c24       3b     1         /app/target/nanosplus/release/deps/legder_xelis-53a0edecdc8ef744.legder_xelis.24eea2af218bcfe3-cgu.0.rcgu.o:(.rodata..Lanon.6b014ad84d8302ab455e1b726636eb9c.132)
c0de9c60 c0de9c60       10     4         /app/target/nanosplus/release/deps/legder_xelis-53a0edecdc8ef744.legder_xelis.24eea2af218bcfe3-cgu.0.rcgu.o:(.rodata..Lanon.6b014ad84d8302ab455e1b726636eb9c.133)
c0de9c60 c0de9c60       10     1                 .Lanon.6b014ad84d8302ab455e1b726636eb9c.133
c0de9c70 c0de9c70       14     1         /app/target/nanosplus/release/deps/legder_xelis-53a0edecdc8ef744.legder_xelis.24eea2af218bcfe3-cgu.0.rcgu.o:(.rodata..Lanon.6b014ad84d8302ab455e1b726636eb9c.134)
c0de9c70 c0de9c70       14     1                 .Lanon.6b014ad84d8302ab455e1b726636eb9c.134
c0de9c84 c0de9c84        c     1         /app/target/nanosplus/release/deps/legder_xelis-53a0edecdc8ef744.legder_xelis.24eea2af218bcfe3-cgu.0.rcgu.o:(.rodata..Lanon.6b014ad84d8302ab455e1b726636eb9c.135)
c0de9c84 c0de9c84        c     1                 .Lanon.6b014ad84d8302ab455e1b726636eb9c.135
c0de9c90 c0de9c90       22     1         /app/target/nanosplus/release/deps/legder_xelis-53a0edecdc8ef744.legder_xelis.24eea2af218bcfe3-cgu.0.rcgu.o:(.rodata..Lanon.6b014ad84d8302ab455e1b726636eb9c.136)
c0de9c90 c0de9c90       22     1                 .Lanon.6b014ad84d8302ab455e1b726636eb9c.136
c0de9cb2 c0de9cb2        5     1         /app/target/nanosplus/release/deps/legder_xelis-53a0edecdc8ef744.legder_xelis.24eea2af218bcfe3-cgu.0.rcgu.o:(.rodata..Lanon.6b014ad84d8302ab455e1b726636eb9c.137)
c0de9cb2 c0de9cb2        5     1                 .Lanon.6b014ad84d8302ab455e1b726636eb9c.137
c0de9cb7 c0de9cb7        5     1         /app/target/nanosplus/release/deps/legder_xelis-53a0edecdc8ef744.legder_xelis.24eea2af218bcfe3-cgu.0.rcgu.o:(.rodata..Lanon.6b014ad84d8302ab455e1b726636eb9c.138)
c0de9cb7 c0de9cb7        5     1                 .Lanon.6b014ad84d8302ab455e1b726636eb9c.138
c0de9cbc c0de9cbc        7     1         /app/target/nanosplus/release/deps/legder_xelis-53a0edecdc8ef744.legder_xelis.24eea2af218bcfe3-cgu.0.rcgu.o:(.rodata..Lanon.6b014ad84d8302ab455e1b726636eb9c.139)
c0de9cbc c0de9cbc        7     1                 .Lanon.6b014ad84d8302ab455e1b726636eb9c.139
c0de9cc3 c0de9cc3       14     1         <internal>:(.rodata.cst4)
c0de9cd7 c0de9cd7       28     1         <internal>:(.rodata.cst8)
c0de9cff c0de9cff        1     1         /app/target/nanosplus/release/deps/legder_xelis-53a0edecdc8ef744.legder_xelis.24eea2af218bcfe3-cgu.0.rcgu.o:(.rodata..Lanon.6b014ad84d8302ab455e1b726636eb9c.145)
c0de9d00 c0de9d00       10     4         /app/target/nanosplus/release/deps/legder_xelis-53a0edecdc8ef744.legder_xelis.24eea2af218bcfe3-cgu.0.rcgu.o:(.rodata..Lanon.6b014ad84d8302ab455e1b726636eb9c.146)
c0de9d00 c0de9d00       10     1                 .Lanon.6b014ad84d8302ab455e1b726636eb9c.146
c0de9d10 c0de9d10       12     1         /app/target/nanosplus/release/deps/legder_xelis-53a0edecdc8ef744.legder_xelis.24eea2af218bcfe3-cgu.0.rcgu.o:(.rodata..Lanon.6b014ad84d8302ab455e1b726636eb9c.147)
c0de9d10 c0de9d10       12     1                 .Lanon.6b014ad84d8302ab455e1b726636eb9c.147
c0de9d22 c0de9d22        7     1         /app/target/nanosplus/release/deps/legder_xelis-53a0edecdc8ef744.legder_xelis.24eea2af218bcfe3-cgu.0.rcgu.o:(.rodata..Lanon.6b014ad84d8302ab455e1b726636eb9c.150)
c0de9d22 c0de9d22        7     1                 .Lanon.6b014ad84d8302ab455e1b726636eb9c.150
c0de9d29 c0de9d29        5     1         /app/target/nanosplus/release/deps/legder_xelis-53a0edecdc8ef744.legder_xelis.24eea2af218bcfe3-cgu.0.rcgu.o:(.rodata..Lanon.6b014ad84d8302ab455e1b726636eb9c.151)
c0de9d29 c0de9d29        5     1                 .Lanon.6b014ad84d8302ab455e1b726636eb9c.151
c0de9d2e c0de9d2e        3     1         /app/target/nanosplus/release/deps/legder_xelis-53a0edecdc8ef744.legder_xelis.24eea2af218bcfe3-cgu.0.rcgu.o:(.rodata..Lanon.6b014ad84d8302ab455e1b726636eb9c.152)
c0de9d2e c0de9d2e        3     1                 .Lanon.6b014ad84d8302ab455e1b726636eb9c.152
c0de9d31 c0de9d31        7     1         /app/target/nanosplus/release/deps/legder_xelis-53a0edecdc8ef744.legder_xelis.24eea2af218bcfe3-cgu.0.rcgu.o:(.rodata..Lanon.6b014ad84d8302ab455e1b726636eb9c.154)
c0de9d38 c0de9d38        8     4         /app/target/nanosplus/release/deps/legder_xelis-53a0edecdc8ef744.legder_xelis.24eea2af218bcfe3-cgu.0.rcgu.o:(.rodata..Lanon.6b014ad84d8302ab455e1b726636eb9c.155)
c0de9d38 c0de9d38        8     1                 .Lanon.6b014ad84d8302ab455e1b726636eb9c.155
c0de9d40 c0de9d40       18     4         /app/target/nanosplus/release/deps/legder_xelis-53a0edecdc8ef744.legder_xelis.24eea2af218bcfe3-cgu.0.rcgu.o:(.rodata..Lanon.6b014ad84d8302ab455e1b726636eb9c.157)
c0de9d40 c0de9d40       18     1                 .Lanon.6b014ad84d8302ab455e1b726636eb9c.157
c0de9d58 c0de9d58        d     1         /app/target/nanosplus/release/deps/legder_xelis-53a0edecdc8ef744.legder_xelis.24eea2af218bcfe3-cgu.0.rcgu.o:(.rodata..Lanon.6b014ad84d8302ab455e1b726636eb9c.161)
c0de9d58 c0de9d58        d     1                 .Lanon.6b014ad84d8302ab455e1b726636eb9c.161
c0de9d65 c0de9d65        f     1         /app/target/nanosplus/release/deps/legder_xelis-53a0edecdc8ef744.legder_xelis.24eea2af218bcfe3-cgu.0.rcgu.o:(.rodata..Lanon.6b014ad84d8302ab455e1b726636eb9c.162)
c0de9d65 c0de9d65        f     1                 .Lanon.6b014ad84d8302ab455e1b726636eb9c.162
c0de9d74 c0de9d74        7     1         /app/target/nanosplus/release/deps/legder_xelis-53a0edecdc8ef744.legder_xelis.24eea2af218bcfe3-cgu.0.rcgu.o:(.rodata..Lanon.6b014ad84d8302ab455e1b726636eb9c.163)
c0de9d74 c0de9d74        7     1                 .Lanon.6b014ad84d8302ab455e1b726636eb9c.163
c0de9d7b c0de9d7b        1     1         /app/target/nanosplus/release/deps/legder_xelis-53a0edecdc8ef744.legder_xelis.24eea2af218bcfe3-cgu.0.rcgu.o:(.rodata..Lanon.6b014ad84d8302ab455e1b726636eb9c.165)
c0de9d7c c0de9d7c       10     4         /app/target/nanosplus/release/deps/legder_xelis-53a0edecdc8ef744.legder_xelis.24eea2af218bcfe3-cgu.0.rcgu.o:(.rodata..Lanon.6b014ad84d8302ab455e1b726636eb9c.166)
c0de9d7c c0de9d7c       10     1                 .Lanon.6b014ad84d8302ab455e1b726636eb9c.166
c0de9d8c c0de9d8c        1     1         /app/target/nanosplus/release/deps/legder_xelis-53a0edecdc8ef744.legder_xelis.24eea2af218bcfe3-cgu.0.rcgu.o:(.rodata..Lanon.6b014ad84d8302ab455e1b726636eb9c.169)
c0de9d8c c0de9d8c        1     1                 .Lanon.6b014ad84d8302ab455e1b726636eb9c.169
c0de9d8d c0de9d8d        1     1         /app/target/nanosplus/release/deps/legder_xelis-53a0edecdc8ef744.legder_xelis.24eea2af218bcfe3-cgu.0.rcgu.o:(.rodata..Lanon.6b014ad84d8302ab455e1b726636eb9c.190)
c0de9d8d c0de9d8d        1     1                 .Lanon.6b014ad84d8302ab455e1b726636eb9c.190
c0de9d8e c0de9d8e        c     1         /app/target/nanosplus/release/deps/legder_xelis-53a0edecdc8ef744.legder_xelis.24eea2af218bcfe3-cgu.0.rcgu.o:(.rodata..Lanon.6b014ad84d8302ab455e1b726636eb9c.191)
c0de9d8e c0de9d8e        c     1                 .Lanon.6b014ad84d8302ab455e1b726636eb9c.191
c0de9d9c c0de9d9c       10     4         /app/target/nanosplus/release/deps/legder_xelis-53a0edecdc8ef744.legder_xelis.24eea2af218bcfe3-cgu.0.rcgu.o:(.rodata..Lanon.1acdd78f31c699cde19e92f6aea44462.0)
c0de9d9c c0de9d9c       10     1                 .Lanon.1acdd78f31c699cde19e92f6aea44462.0
c0de9dac c0de9dac        5     1         /app/target/nanosplus/release/deps/legder_xelis-53a0edecdc8ef744.legder_xelis.24eea2af218bcfe3-cgu.0.rcgu.o:(.rodata..Lanon.1acdd78f31c699cde19e92f6aea44462.3)
c0de9dac c0de9dac        5     1                 .Lanon.1acdd78f31c699cde19e92f6aea44462.3
c0de9db4 c0de9db4       18     4         /app/target/nanosplus/release/deps/legder_xelis-53a0edecdc8ef744.legder_xelis.24eea2af218bcfe3-cgu.0.rcgu.o:(.rodata..Lanon.1acdd78f31c699cde19e92f6aea44462.6)
c0de9db4 c0de9db4       18     1                 .Lanon.1acdd78f31c699cde19e92f6aea44462.6
c0de9dcc c0de9dcc       56     1         /app/target/nanosplus/release/deps/legder_xelis-53a0edecdc8ef744.legder_xelis.24eea2af218bcfe3-cgu.0.rcgu.o:(.rodata..Lanon.1acdd78f31c699cde19e92f6aea44462.48)
c0de9dcc c0de9dcc       56     1                 .Lanon.1acdd78f31c699cde19e92f6aea44462.48
c0de9e22 c0de9e22        1     1         /app/target/nanosplus/release/deps/legder_xelis-53a0edecdc8ef744.legder_xelis.24eea2af218bcfe3-cgu.0.rcgu.o:(.rodata..Lanon.9c59b2d54c2fc7f68cdfefb9927b5521.171)
c0de9e22 c0de9e22        1     1                 .Lanon.9c59b2d54c2fc7f68cdfefb9927b5521.171
c0de9e23 c0de9e23       20     1         <internal>:(.rodata.cst16)
c0de9e43 c0de9e43       2b     1         /app/target/nanosplus/release/deps/legder_xelis-53a0edecdc8ef744.legder_xelis.24eea2af218bcfe3-cgu.0.rcgu.o:(.rodata..Lanon.9c59b2d54c2fc7f68cdfefb9927b5521.254)
c0de9e43 c0de9e43       2b     1                 .Lanon.9c59b2d54c2fc7f68cdfefb9927b5521.254
c0de9e70 c0de9e70       18     4         /app/target/nanosplus/release/deps/legder_xelis-53a0edecdc8ef744.legder_xelis.24eea2af218bcfe3-cgu.0.rcgu.o:(.rodata..Lanon.9c59b2d54c2fc7f68cdfefb9927b5521.288)
c0de9e70 c0de9e70       18     1                 .Lanon.9c59b2d54c2fc7f68cdfefb9927b5521.288
c0de9e88 c0de9e88        2     1         /app/target/nanosplus/release/deps/legder_xelis-53a0edecdc8ef744.legder_xelis.24eea2af218bcfe3-cgu.0.rcgu.o:(.rodata..Lanon.9c59b2d54c2fc7f68cdfefb9927b5521.292)
c0de9e88 c0de9e88        2     1                 .Lanon.9c59b2d54c2fc7f68cdfefb9927b5521.292
c0de9e8a c0de9e8a        2     1         /app/target/nanosplus/release/deps/legder_xelis-53a0edecdc8ef744.legder_xelis.24eea2af218bcfe3-cgu.0.rcgu.o:(.rodata..Lanon.9c59b2d54c2fc7f68cdfefb9927b5521.294)
c0de9e8a c0de9e8a        2     1                 .Lanon.9c59b2d54c2fc7f68cdfefb9927b5521.294
c0de9e8c c0de9e8c        1     1         /app/target/nanosplus/release/deps/legder_xelis-53a0edecdc8ef744.legder_xelis.24eea2af218bcfe3-cgu.0.rcgu.o:(.rodata..Lanon.9c59b2d54c2fc7f68cdfefb9927b5521.300)
c0de9e8c c0de9e8c        1     1                 .Lanon.9c59b2d54c2fc7f68cdfefb9927b5521.300
c0de9e8d c0de9e8d        2     1         /app/target/nanosplus/release/deps/legder_xelis-53a0edecdc8ef744.legder_xelis.24eea2af218bcfe3-cgu.0.rcgu.o:(.rodata..Lanon.9c59b2d54c2fc7f68cdfefb9927b5521.301)
c0de9e8d c0de9e8d        2     1                 .Lanon.9c59b2d54c2fc7f68cdfefb9927b5521.301
c0de9e8f c0de9e8f        1     1         /app/target/nanosplus/release/deps/legder_xelis-53a0edecdc8ef744.legder_xelis.24eea2af218bcfe3-cgu.0.rcgu.o:(.rodata..Lanon.9c59b2d54c2fc7f68cdfefb9927b5521.304)
c0de9e8f c0de9e8f        1     1                 .Lanon.9c59b2d54c2fc7f68cdfefb9927b5521.304
c0de9e90 c0de9e90        1     1         /app/target/nanosplus/release/deps/legder_xelis-53a0edecdc8ef744.legder_xelis.24eea2af218bcfe3-cgu.0.rcgu.o:(.rodata..Lanon.9c59b2d54c2fc7f68cdfefb9927b5521.305)
c0de9e90 c0de9e90        1     1                 .Lanon.9c59b2d54c2fc7f68cdfefb9927b5521.305
c0de9e91 c0de9e91        1     1         /app/target/nanosplus/release/deps/legder_xelis-53a0edecdc8ef744.legder_xelis.24eea2af218bcfe3-cgu.0.rcgu.o:(.rodata..Lanon.9c59b2d54c2fc7f68cdfefb9927b5521.312)
c0de9e91 c0de9e91        1     1                 .Lanon.9c59b2d54c2fc7f68cdfefb9927b5521.312
c0de9e92 c0de9e92        2     1         /app/target/nanosplus/release/deps/legder_xelis-53a0edecdc8ef744.legder_xelis.24eea2af218bcfe3-cgu.0.rcgu.o:(.rodata..Lanon.9c59b2d54c2fc7f68cdfefb9927b5521.325)
c0de9e92 c0de9e92        2     1                 .Lanon.9c59b2d54c2fc7f68cdfefb9927b5521.325
c0de9e94 c0de9e94       c8     1         /app/target/nanosplus/release/deps/legder_xelis-53a0edecdc8ef744.legder_xelis.24eea2af218bcfe3-cgu.0.rcgu.o:(.rodata..Lanon.9c59b2d54c2fc7f68cdfefb9927b5521.328)
c0de9e94 c0de9e94       c8     1                 .Lanon.9c59b2d54c2fc7f68cdfefb9927b5521.328
c0de9f5c c0de9f5c        2     1         /app/target/nanosplus/release/deps/legder_xelis-53a0edecdc8ef744.legder_xelis.24eea2af218bcfe3-cgu.0.rcgu.o:(.rodata..Lanon.9c59b2d54c2fc7f68cdfefb9927b5521.347)
c0de9f5c c0de9f5c        2     1                 .Lanon.9c59b2d54c2fc7f68cdfefb9927b5521.347
c0de9f5e c0de9f5e      100     1         /app/target/nanosplus/release/deps/legder_xelis-53a0edecdc8ef744.legder_xelis.24eea2af218bcfe3-cgu.0.rcgu.o:(.rodata..Lanon.9c59b2d54c2fc7f68cdfefb9927b5521.385)
c0de9f5e c0de9f5e      100     1                 .Lanon.9c59b2d54c2fc7f68cdfefb9927b5521.385
c0dea05e c0dea05e       73     1         /app/target/nanosplus/release/deps/legder_xelis-53a0edecdc8ef744.legder_xelis.24eea2af218bcfe3-cgu.0.rcgu.o:(.rodata..Lanon.9c59b2d54c2fc7f68cdfefb9927b5521.416)
c0dea0d4 c0dea0d4       10     4         /app/target/nanosplus/release/deps/legder_xelis-53a0edecdc8ef744.legder_xelis.24eea2af218bcfe3-cgu.0.rcgu.o:(.rodata..Lanon.290bfdce3d219b63c182839b60026522.12)
c0dea0d4 c0dea0d4       10     1                 .Lanon.290bfdce3d219b63c182839b60026522.12
c0dea0e4 c0dea0e4        1     1         /app/target/nanosplus/release/deps/legder_xelis-53a0edecdc8ef744.legder_xelis.24eea2af218bcfe3-cgu.0.rcgu.o:(.rodata..Lanon.290bfdce3d219b63c182839b60026522.29)
c0dea0e4 c0dea0e4        1     1                 .Lanon.290bfdce3d219b63c182839b60026522.29
c0dea0e5 c0dea0e5        1     1         /app/target/nanosplus/release/deps/legder_xelis-53a0edecdc8ef744.legder_xelis.24eea2af218bcfe3-cgu.0.rcgu.o:(.rodata..Lanon.290bfdce3d219b63c182839b60026522.63)
c0dea0e5 c0dea0e5        1     1                 .Lanon.290bfdce3d219b63c182839b60026522.63
c0dea0e6 c0dea0e6        a     1         /app/target/nanosplus/release/deps/legder_xelis-53a0edecdc8ef744.legder_xelis.24eea2af218bcfe3-cgu.0.rcgu.o:(.rodata..Lanon.290bfdce3d219b63c182839b60026522.103)
c0dea0f0 c0dea0f0        8     4         /app/target/nanosplus/release/deps/legder_xelis-53a0edecdc8ef744.legder_xelis.24eea2af218bcfe3-cgu.0.rcgu.o:(.rodata..Lanon.290bfdce3d219b63c182839b60026522.104)
c0dea0f0 c0dea0f0        8     1                 .Lanon.290bfdce3d219b63c182839b60026522.104
c0dea0f8 c0dea0f8       10     4         /app/target/nanosplus/release/deps/legder_xelis-53a0edecdc8ef744.legder_xelis.24eea2af218bcfe3-cgu.0.rcgu.o:(.rodata..Lanon.0744f3929c562ab7b4ff64019a058b73.4)
c0dea0f8 c0dea0f8       10     1                 .Lanon.0744f3929c562ab7b4ff64019a058b73.4
c0dea108 c0dea108       2b     1         /app/target/nanosplus/release/deps/legder_xelis-53a0edecdc8ef744.legder_xelis.24eea2af218bcfe3-cgu.0.rcgu.o:(.rodata..Lanon.0744f3929c562ab7b4ff64019a058b73.5)
c0dea108 c0dea108       2b     1                 .Lanon.0744f3929c562ab7b4ff64019a058b73.5
c0dea133 c0dea133        b     1         /app/target/nanosplus/release/deps/legder_xelis-53a0edecdc8ef744.legder_xelis.24eea2af218bcfe3-cgu.0.rcgu.o:(.rodata..Lanon.0744f3929c562ab7b4ff64019a058b73.7)
c0dea133 c0dea133        b     1                 .Lanon.0744f3929c562ab7b4ff64019a058b73.7
c0dea13e c0dea13e       2b     1         /app/target/nanosplus/release/deps/legder_xelis-53a0edecdc8ef744.legder_xelis.24eea2af218bcfe3-cgu.0.rcgu.o:(.rodata..Lanon.0744f3929c562ab7b4ff64019a058b73.17)
c0dea13e c0dea13e       2b     1                 .Lanon.0744f3929c562ab7b4ff64019a058b73.17
c0dea169 c0dea169        1     1         /app/target/nanosplus/release/deps/legder_xelis-53a0edecdc8ef744.legder_xelis.24eea2af218bcfe3-cgu.0.rcgu.o:(.rodata..Lanon.0744f3929c562ab7b4ff64019a058b73.22)
c0dea169 c0dea169        1     1                 .Lanon.0744f3929c562ab7b4ff64019a058b73.22
c0dea16a c0dea16a      1bd     1         <internal>:(.rodata.str1.1)
c0dea327 c0dea327       17     1         /tmp/rustcF3LqcJ/libledger_secure_sdk_sys-bd0b62138df877e8.rlib(8f3ff09fca89963b-glyphs.o):(.rodata.C_icon_validate_14_bitmap)
c0dea327 c0dea327       17     1                 C_icon_validate_14_bitmap
c0dea33e c0dea33e        a     1         /tmp/rustcF3LqcJ/libledger_secure_sdk_sys-bd0b62138df877e8.rlib(8f3ff09fca89963b-glyphs.o):(.rodata.C_icon_validate_14)
c0dea33e c0dea33e        a     1                 C_icon_validate_14
c0dea348 c0dea348        4     1         /tmp/rustcF3LqcJ/libledger_secure_sdk_sys-bd0b62138df877e8.rlib(8f3ff09fca89963b-glyphs.o):(.rodata.C_icon_right_bitmap)
c0dea348 c0dea348        4     1                 C_icon_right_bitmap
c0dea34c c0dea34c        a     1         /tmp/rustcF3LqcJ/libledger_secure_sdk_sys-bd0b62138df877e8.rlib(8f3ff09fca89963b-glyphs.o):(.rodata.C_icon_right)
c0dea34c c0dea34c        a     1                 C_icon_right
c0dea356 c0dea356       19     1         /tmp/rustcF3LqcJ/libledger_secure_sdk_sys-bd0b62138df877e8.rlib(8f3ff09fca89963b-glyphs.o):(.rodata.C_icon_back_x_bitmap)
c0dea356 c0dea356       19     1                 C_icon_back_x_bitmap
c0dea36f c0dea36f        a     1         /tmp/rustcF3LqcJ/libledger_secure_sdk_sys-bd0b62138df877e8.rlib(8f3ff09fca89963b-glyphs.o):(.rodata.C_icon_back_x)
c0dea36f c0dea36f        a     1                 C_icon_back_x
c0dea379 c0dea379       19     1         /tmp/rustcF3LqcJ/libledger_secure_sdk_sys-bd0b62138df877e8.rlib(8f3ff09fca89963b-glyphs.o):(.rodata.C_Information_circle_14px_bitmap)
c0dea379 c0dea379       19     1                 C_Information_circle_14px_bitmap
c0dea392 c0dea392        a     1         /tmp/rustcF3LqcJ/libledger_secure_sdk_sys-bd0b62138df877e8.rlib(8f3ff09fca89963b-glyphs.o):(.rodata.C_Information_circle_14px)
c0dea392 c0dea392        a     1                 C_Information_circle_14px
c0dea39c c0dea39c       19     1         /tmp/rustcF3LqcJ/libledger_secure_sdk_sys-bd0b62138df877e8.rlib(8f3ff09fca89963b-glyphs.o):(.rodata.C_Quit_14px_bitmap)
c0dea39c c0dea39c       19     1                 C_Quit_14px_bitmap
c0dea3b5 c0dea3b5        a     1         /tmp/rustcF3LqcJ/libledger_secure_sdk_sys-bd0b62138df877e8.rlib(8f3ff09fca89963b-glyphs.o):(.rodata.C_Quit_14px)
c0dea3b5 c0dea3b5        a     1                 C_Quit_14px
c0dea3bf c0dea3bf       19     1         /tmp/rustcF3LqcJ/libledger_secure_sdk_sys-bd0b62138df877e8.rlib(8f3ff09fca89963b-glyphs.o):(.rodata.C_icon_crossmark_bitmap)
c0dea3bf c0dea3bf       19     1                 C_icon_crossmark_bitmap
c0dea3d8 c0dea3d8        a     1         /tmp/rustcF3LqcJ/libledger_secure_sdk_sys-bd0b62138df877e8.rlib(8f3ff09fca89963b-glyphs.o):(.rodata.C_icon_crossmark)
c0dea3d8 c0dea3d8        a     1                 C_icon_crossmark
c0dea3e2 c0dea3e2        c     1         /tmp/rustcF3LqcJ/libledger_secure_sdk_sys-bd0b62138df877e8.rlib(8f3ff09fca89963b-glyphs.o):(.rodata.C_Switch_On_8px_bitmap)
c0dea3e2 c0dea3e2        c     1                 C_Switch_On_8px_bitmap
c0dea3ee c0dea3ee        a     1         /tmp/rustcF3LqcJ/libledger_secure_sdk_sys-bd0b62138df877e8.rlib(8f3ff09fca89963b-glyphs.o):(.rodata.C_Switch_On_8px)
c0dea3ee c0dea3ee        a     1                 C_Switch_On_8px
c0dea3f8 c0dea3f8        4     1         /tmp/rustcF3LqcJ/libledger_secure_sdk_sys-bd0b62138df877e8.rlib(8f3ff09fca89963b-glyphs.o):(.rodata.C_icon_down_bitmap)
c0dea3f8 c0dea3f8        4     1                 C_icon_down_bitmap
c0dea3fc c0dea3fc        a     1         /tmp/rustcF3LqcJ/libledger_secure_sdk_sys-bd0b62138df877e8.rlib(8f3ff09fca89963b-glyphs.o):(.rodata.C_icon_down)
c0dea3fc c0dea3fc        a     1                 C_icon_down
c0dea406 c0dea406        c     1         /tmp/rustcF3LqcJ/libledger_secure_sdk_sys-bd0b62138df877e8.rlib(8f3ff09fca89963b-glyphs.o):(.rodata.C_Switch_Off_8px_bitmap)
c0dea406 c0dea406        c     1                 C_Switch_Off_8px_bitmap
c0dea412 c0dea412        a     1         /tmp/rustcF3LqcJ/libledger_secure_sdk_sys-bd0b62138df877e8.rlib(8f3ff09fca89963b-glyphs.o):(.rodata.C_Switch_Off_8px)
c0dea412 c0dea412        a     1                 C_Switch_Off_8px
c0dea41c c0dea41c        4     1         /tmp/rustcF3LqcJ/libledger_secure_sdk_sys-bd0b62138df877e8.rlib(8f3ff09fca89963b-glyphs.o):(.rodata.C_icon_up_bitmap)
c0dea41c c0dea41c        4     1                 C_icon_up_bitmap
c0dea420 c0dea420        a     1         /tmp/rustcF3LqcJ/libledger_secure_sdk_sys-bd0b62138df877e8.rlib(8f3ff09fca89963b-glyphs.o):(.rodata.C_icon_up)
c0dea420 c0dea420        a     1                 C_icon_up
c0dea42a c0dea42a        4     1         /tmp/rustcF3LqcJ/libledger_secure_sdk_sys-bd0b62138df877e8.rlib(8f3ff09fca89963b-glyphs.o):(.rodata.C_icon_left_bitmap)
c0dea42a c0dea42a        4     1                 C_icon_left_bitmap
c0dea42e c0dea42e        a     1         /tmp/rustcF3LqcJ/libledger_secure_sdk_sys-bd0b62138df877e8.rlib(8f3ff09fca89963b-glyphs.o):(.rodata.C_icon_left)
c0dea42e c0dea42e        a     1                 C_icon_left
c0dea438 c0dea438       19     1         /tmp/rustcF3LqcJ/libledger_secure_sdk_sys-bd0b62138df877e8.rlib(8f3ff09fca89963b-glyphs.o):(.rodata.C_icon_coggle_bitmap)
c0dea438 c0dea438       19     1                 C_icon_coggle_bitmap
c0dea451 c0dea451        a     1         /tmp/rustcF3LqcJ/libledger_secure_sdk_sys-bd0b62138df877e8.rlib(8f3ff09fca89963b-glyphs.o):(.rodata.C_icon_coggle)
c0dea451 c0dea451        a     1                 C_icon_coggle
c0dea45b c0dea45b      1a5     1         . = ALIGN ( PAGE_SIZE )
c0dea600 c0dea600        0     1         _erodata = .
c0dea600 c0dea600        0     1 _rodata_len = _erodata - _rodata
da7a0000 da7a0000        0     4 .data
da7a0000 da7a0000        0     1         _data = .
da7a0000 da7a0000        0     1         . = ALIGN ( PAGE_SIZE )
da7a0000 da7a0000        0     1         _edata = .
da7a0000 da7a0000        0     1 _data_len = SIZEOF ( .data )
da7a0000 da7a0000        0     1 
c0dea600 c0dea600      400   512 .nvm_data
c0dea600 c0dea600        0     1         _nvm_data_start = .
c0dea600 c0dea600      200   512         /app/target/nanosplus/release/deps/legder_xelis-53a0edecdc8ef744.legder_xelis.24eea2af218bcfe3-cgu.0.rcgu.o:(.nvm_data)
c0dea600 c0dea600      200     1                 legder_xelis::settings::DATA::h3208660b2cdf162e
c0dea800 c0dea800        0     1         . = ALIGN ( 4 )
c0dea800 c0dea800        0     1         _nvram_prev_run = .
c0dea800 c0dea800        4     1         LONG ( ABSOLUTE ( _nvram_start ) )
c0dea804 c0dea804      1fc     1         . = ALIGN ( PAGE_SIZE )
c0deaa00 c0deaa00        0     1         _envram_data = .
c0deaa00 c0deaa00        0     1         _install_parameters = .
c0deaa00 c0deaa00        0     1         _nvram_end = .
c0deaa00 c0deaa00        0     1 _sidata_src = LOADADDR ( .data )
da7a0000 da7a0000     6820     4 .bss
da7a0000 da7a0000        0     1         _bss = .
da7a0000 da7a0000       78     4         /app/target/nanosplus/release/deps/legder_xelis-53a0edecdc8ef744.legder_xelis.24eea2af218bcfe3-cgu.0.rcgu.o:(.bss._ZN17ledger_device_sdk4nbgl22nbgl_home_and_settings12SWITCH_ARRAY17h33cf2acdc155259eE)
da7a0000 da7a0000       78     1                 ledger_device_sdk::nbgl::nbgl_home_and_settings::SWITCH_ARRAY::h33cf2acdc155259e
da7a0078 da7a0078     6000     1         /app/target/nanosplus/release/deps/legder_xelis-53a0edecdc8ef744.legder_xelis.24eea2af218bcfe3-cgu.0.rcgu.o:(.bss._ZN21ledger_secure_sdk_sys9heap_init8HEAP_MEM17h4e0b3cbd81945070E)
da7a0078 da7a0078     6000     1                 ledger_secure_sdk_sys::heap_init::HEAP_MEM::h4e0b3cbd81945070
da7a6078 da7a6078       1c     4         /app/target/nanosplus/release/deps/legder_xelis-53a0edecdc8ef744.legder_xelis.24eea2af218bcfe3-cgu.0.rcgu.o:(.bss._ZN21ledger_secure_sdk_sys4HEAP17h3e62f2c1966caca8E)
da7a6078 da7a6078       1c     1                 ledger_secure_sdk_sys::HEAP::h3e62f2c1966caca8
da7a6094 da7a6094       24     4         /app/target/nanosplus/release/deps/legder_xelis-53a0edecdc8ef744.legder_xelis.24eea2af218bcfe3-cgu.0.rcgu.o:(.bss..L_MergedGlobals)
da7a6094 da7a6094       24     1                 .L_MergedGlobals
da7a6094 da7a6094        1     1                 legder_xelis::xlb::MEMO_WS_INIT::hafe0604811820b49 (.0)
da7a6095 da7a6095        1     1                 __rust_no_alloc_shim_is_unstable
da7a6096 da7a6096        1     1                 ledger_device_sdk::nbgl::G_RET::h09e4ea5c166735e4 (.0)
da7a6097 da7a6097        1     1                 ledger_device_sdk::nbgl::G_ENDED::h3d39b4b71865003c (.0)
da7a6098 da7a6098        4     1                 ledger_device_sdk::nbgl::nbgl_home_and_settings::NVM_REF::h88c4867394176a36 (.0)
da7a609c da7a609c        4     1                 ledger_device_sdk::nbgl::COMM_REF::hfefa157d92cd6962 (.0)
da7a60a0 da7a60a0       18     1                 legder_xelis::xlb::MEMO_WS::he9c97768c80c49cc
da7a60b8 da7a60b8        c     4         /tmp/rustcF3LqcJ/libledger_secure_sdk_sys-bd0b62138df877e8.rlib(2a79bb93db92c8b8-src.o):(.bss.G_ux_params)
da7a60b8 da7a60b8        c     1                 G_ux_params
da7a60c4 da7a60c4        4     4         /tmp/rustcF3LqcJ/libledger_secure_sdk_sys-bd0b62138df877e8.rlib(bad1508f163a25cc-ux.o):(.bss.nbTicks)
da7a60c4 da7a60c4        4     1                 nbTicks
da7a60c8 da7a60c8       68     4         /tmp/rustcF3LqcJ/libledger_secure_sdk_sys-bd0b62138df877e8.rlib(196e657857525104-nbgl_use_case_nanos.o):(.bss..L_MergedGlobals)
da7a60c8 da7a60c8       68     1                 .L_MergedGlobals
da7a60c8 da7a60c8       28     1                 reviewWithWarnCtx
da7a60f0 da7a60f0       40     1                 context
da7a6130 da7a6130       d8     4         /tmp/rustcF3LqcJ/libledger_secure_sdk_sys-bd0b62138df877e8.rlib(196e657857525104-nbgl_step.o):(.bss.contexts)
da7a6130 da7a6130       d8     1                 contexts
da7a6208 da7a6208       24     4         /tmp/rustcF3LqcJ/libledger_secure_sdk_sys-bd0b62138df877e8.rlib(196e657857525104-nbgl_layout_nanos.o):(.bss.gLayout)
da7a6208 da7a6208       24     1                 gLayout
da7a622c da7a622c       14     4         /tmp/rustcF3LqcJ/libledger_secure_sdk_sys-bd0b62138df877e8.rlib(196e657857525104-nbgl_layout_nanos.o):(.bss.nbgl_layoutAddText.tmpString)
da7a622c da7a622c       14     1                 nbgl_layoutAddText.tmpString
da7a6240 da7a6240        0     1         _ebss = .
da7a6240 da7a6240        0     1         _bss_len = ABSOLUTE ( _ebss ) - ABSOLUTE ( _bss )
da7a6240 da7a6240        0     1         . = ALIGN ( 4 )
da7a6240 da7a6240        0     1         app_stack_canary = .
da7a6240 da7a6240        4     1         . += 4
da7a6244 da7a6244        0     1         _stack_validation = .
da7a6244 da7a6244      5dc     1         . = _stack_validation + STACK_SIZE
da7a6820 da7a6820        0     1         _stack = ABSOLUTE ( END_STACK ) - STACK_SIZE
da7a6820 da7a6820        0     1         _estack = ABSOLUTE ( END_STACK )
       0        0        7     1 ledger.target
       0        0        7     1         /app/target/nanosplus/release/deps/legder_xelis-53a0edecdc8ef744.legder_xelis.24eea2af218bcfe3-cgu.0.rcgu.o:(ledger.target)
       0        0        7     1                 ledger_secure_sdk_sys::infos::ELF_TARGET::h6551f40a7e820c0a
       0        0        b     1 ledger.target_id
       0        0        b     1         /app/target/nanosplus/release/deps/legder_xelis-53a0edecdc8ef744.legder_xelis.24eea2af218bcfe3-cgu.0.rcgu.o:(ledger.target_id)
       0        0        b     1                 ledger_secure_sdk_sys::infos::ELF_TARGET_ID::hde3f7b5a6ecaeb45
       0        0        e     1 ledger.target_name
       0        0        e     1         /app/target/nanosplus/release/deps/legder_xelis-53a0edecdc8ef744.legder_xelis.24eea2af218bcfe3-cgu.0.rcgu.o:(ledger.target_name)
       0        0        e     1                 ledger_secure_sdk_sys::infos::ELF_TARGET_NAME::h2eff9304a831ba13
       0        0        3     1 ledger.api_level
       0        0        3     1         /app/target/nanosplus/release/deps/legder_xelis-53a0edecdc8ef744.legder_xelis.24eea2af218bcfe3-cgu.0.rcgu.o:(ledger.api_level)
       0        0        3     1                 ledger_secure_sdk_sys::infos::ELF_API_LEVEL::h2970a35301b1b8e6
       0        0        8     1 ledger.sdk_version
       0        0        8     1         /app/target/nanosplus/release/deps/legder_xelis-53a0edecdc8ef744.legder_xelis.24eea2af218bcfe3-cgu.0.rcgu.o:(ledger.sdk_version)
       0        0        8     1                 ledger_secure_sdk_sys::infos::ELF_C_SDK_VERSION::h441a39244d452f1d
       0        0        7     1 ledger.rust_sdk_version
       0        0        7     1         /app/target/nanosplus/release/deps/legder_xelis-53a0edecdc8ef744.legder_xelis.24eea2af218bcfe3-cgu.0.rcgu.o:(ledger.rust_sdk_version)
       0        0        7     1                 ledger_secure_sdk_sys::infos::ELF_RUST_SDK_VERSION::h5ee4041cd8e308da
       0        0       16     1 ledger.rust_sdk_name
       0        0       16     1         /app/target/nanosplus/release/deps/legder_xelis-53a0edecdc8ef744.legder_xelis.24eea2af218bcfe3-cgu.0.rcgu.o:(ledger.rust_sdk_name)
       0        0       16     1                 ledger_secure_sdk_sys::infos::ELF_RUST_SDK_NAME::h1088b20c701216bb
       0        0       12     1 ledger.sdk_name
       0        0       12     1         /app/target/nanosplus/release/deps/legder_xelis-53a0edecdc8ef744.legder_xelis.24eea2af218bcfe3-cgu.0.rcgu.o:(ledger.sdk_name)
       0        0       12     1                 ledger_secure_sdk_sys::infos::ELF_C_SDK_NAME::h2296be479c181cbc
       0        0       29     1 ledger.sdk_hash
       0        0       29     1         /app/target/nanosplus/release/deps/legder_xelis-53a0edecdc8ef744.legder_xelis.24eea2af218bcfe3-cgu.0.rcgu.o:(ledger.sdk_hash)
       0        0       29     1                 ledger_secure_sdk_sys::infos::ELF_C_SDK_HASH::h827184b1bf9c5201
       0        0        5     1 ledger.sdk_graphics
       0        0        5     1         /app/target/nanosplus/release/deps/legder_xelis-53a0edecdc8ef744.legder_xelis.24eea2af218bcfe3-cgu.0.rcgu.o:(ledger.sdk_graphics)
       0        0        5     1                 ledger_secure_sdk_sys::infos::ELF_C_SDK_GRAPHICS::h9d836417a677a2bb
da7a6820 da7a6820        0     1 PROVIDE ( _nvram = ABSOLUTE ( _nvram_start ) )
da7a6820 da7a6820        0     1 PROVIDE ( _envram = ABSOLUTE ( _nvram_end ) )
       0        0     30b0     4 .rel.text
       0        0        8     4         /app/target/nanosplus/release/deps/legder_xelis-53a0edecdc8ef744.legder_xelis.24eea2af218bcfe3-cgu.0.rcgu.o:(.rel.text._ZN102_$LT$core..iter..adapters..map..Map$LT$I$C$F$GT$$u20$as$u20$core..iter..traits..iterator..Iterator$GT$9size_hint17hf600eeffaae11fe1E)
       8        8        8     4         /app/target/nanosplus/release/deps/legder_xelis-53a0edecdc8ef744.legder_xelis.24eea2af218bcfe3-cgu.0.rcgu.o:(.rel.text._ZN106_$LT$core..ops..range..Range$LT$usize$GT$$u20$as$u20$core..slice..index..SliceIndex$LT$$u5b$T$u5d$$GT$$GT$9index_mut17hfea382c2f4a25d7fE)
      10       10        8     4         /app/target/nanosplus/release/deps/legder_xelis-53a0edecdc8ef744.legder_xelis.24eea2af218bcfe3-cgu.0.rcgu.o:(.rel.text._ZN108_$LT$core..ops..range..RangeTo$LT$usize$GT$$u20$as$u20$core..slice..index..SliceIndex$LT$$u5b$T$u5d$$GT$$GT$9index_mut17hecd11f665b1904b5E)
      18       18        8     4         /app/target/nanosplus/release/deps/legder_xelis-53a0edecdc8ef744.legder_xelis.24eea2af218bcfe3-cgu.0.rcgu.o:(.rel.text._ZN110_$LT$core..ops..range..RangeFrom$LT$usize$GT$$u20$as$u20$core..slice..index..SliceIndex$LT$$u5b$T$u5d$$GT$$GT$5index17ha7715b10a27de07aE)
      20       20       18     4         /app/target/nanosplus/release/deps/legder_xelis-53a0edecdc8ef744.legder_xelis.24eea2af218bcfe3-cgu.0.rcgu.o:(.rel.text._ZN17ledger_device_sdk13exiting_panic17hb380d47c2999d9beE)
      38       38       10     4         /app/target/nanosplus/release/deps/legder_xelis-53a0edecdc8ef744.legder_xelis.24eea2af218bcfe3-cgu.0.rcgu.o:(.rel.text._ZN17ledger_device_sdk2io4Comm5reply17h47389c8e0d505a39E)
      48       48        8     4         /app/target/nanosplus/release/deps/legder_xelis-53a0edecdc8ef744.legder_xelis.24eea2af218bcfe3-cgu.0.rcgu.o:(.rel.text._ZN17ledger_device_sdk4hash8HashInit6update17hbd301b2915693e7aE)
      50       50       10     4         /app/target/nanosplus/release/deps/legder_xelis-53a0edecdc8ef744.legder_xelis.24eea2af218bcfe3-cgu.0.rcgu.o:(.rel.text._ZN17ledger_device_sdk4hash8HashInit8finalize17hac91020c6db69821E)
      60       60        8     4         /app/target/nanosplus/release/deps/legder_xelis-53a0edecdc8ef744.legder_xelis.24eea2af218bcfe3-cgu.0.rcgu.o:(.rel.text._ZN4core3ptr42drop_in_place$LT$alloc..string..String$GT$17h9cdf89c4d555bc76E)
      68       68        8     4         /app/target/nanosplus/release/deps/legder_xelis-53a0edecdc8ef744.legder_xelis.24eea2af218bcfe3-cgu.0.rcgu.o:(.rel.text._ZN4core3ptr47drop_in_place$LT$alloc..ffi..c_str..CString$GT$17h4af76f9dd3e1e53cE)
      70       70        8     4         /app/target/nanosplus/release/deps/legder_xelis-53a0edecdc8ef744.legder_xelis.24eea2af218bcfe3-cgu.0.rcgu.o:(.rel.text._ZN4core3ptr51drop_in_place$LT$legder_xelis..utils..Bip32Path$GT$17h67ebd7a748a0bb97E)
      78       78       18     4         /app/target/nanosplus/release/deps/legder_xelis-53a0edecdc8ef744.legder_xelis.24eea2af218bcfe3-cgu.0.rcgu.o:(.rel.text._ZN4core3ptr97drop_in_place$LT$alloc..vec..Vec$LT$$LP$alloc..string..String$C$alloc..string..String$RP$$GT$$GT$17h2351c18e1d9d66f5E)
      90       90        8     4         /app/target/nanosplus/release/deps/legder_xelis-53a0edecdc8ef744.legder_xelis.24eea2af218bcfe3-cgu.0.rcgu.o:(.rel.text._ZN4core3str6traits66_$LT$impl$u20$core..ops..index..Index$LT$I$GT$$u20$for$u20$str$GT$5index17h3134146b7fbbf013E)
      98       98        8     4         /app/target/nanosplus/release/deps/legder_xelis-53a0edecdc8ef744.legder_xelis.24eea2af218bcfe3-cgu.0.rcgu.o:(.rel.text._ZN4core3str6traits66_$LT$impl$u20$core..ops..index..Index$LT$I$GT$$u20$for$u20$str$GT$5index17hf7db32d8eecd52e2E)
      a0       a0        8     4         /app/target/nanosplus/release/deps/legder_xelis-53a0edecdc8ef744.legder_xelis.24eea2af218bcfe3-cgu.0.rcgu.o:(.rel.text._ZN4core5array85_$LT$impl$u20$core..ops..index..Index$LT$I$GT$$u20$for$u20$$u5b$T$u3b$$u20$N$u5d$$GT$5index17h0bcd32e4165fa521E)
      a8       a8        8     4         /app/target/nanosplus/release/deps/legder_xelis-53a0edecdc8ef744.legder_xelis.24eea2af218bcfe3-cgu.0.rcgu.o:(.rel.text._ZN4core5array85_$LT$impl$u20$core..ops..index..Index$LT$I$GT$$u20$for$u20$$u5b$T$u3b$$u20$N$u5d$$GT$5index17h11b1e0bd1958d967E)
      b0       b0        8     4         /app/target/nanosplus/release/deps/legder_xelis-53a0edecdc8ef744.legder_xelis.24eea2af218bcfe3-cgu.0.rcgu.o:(.rel.text._ZN4core5array88_$LT$impl$u20$core..ops..index..IndexMut$LT$I$GT$$u20$for$u20$$u5b$T$u3b$$u20$N$u5d$$GT$9index_mut17hc20ecba8fc4bc700E)
      b8       b8        8     4         /app/target/nanosplus/release/deps/legder_xelis-53a0edecdc8ef744.legder_xelis.24eea2af218bcfe3-cgu.0.rcgu.o:(.rel.text._ZN4core5array88_$LT$impl$u20$core..ops..index..IndexMut$LT$I$GT$$u20$for$u20$$u5b$T$u3b$$u20$N$u5d$$GT$9index_mut17hf60ecbb0dbc669d2E)
      c0       c0       28     4         /app/target/nanosplus/release/deps/legder_xelis-53a0edecdc8ef744.legder_xelis.24eea2af218bcfe3-cgu.0.rcgu.o:(.rel.text._ZN4core5slice29_$LT$impl$u20$$u5b$T$u5d$$GT$7reverse17h4a08f924e0392fa7E)
      e8       e8       18     4         /app/target/nanosplus/release/deps/legder_xelis-53a0edecdc8ef744.legder_xelis.24eea2af218bcfe3-cgu.0.rcgu.o:(.rel.text._ZN4core6result19Result$LT$T$C$E$GT$6expect17h203bf820ca559b3cE)
     100      100        8     4         /app/target/nanosplus/release/deps/legder_xelis-53a0edecdc8ef744.legder_xelis.24eea2af218bcfe3-cgu.0.rcgu.o:(.rel.text._ZN52_$LT$char$u20$as$u20$core..str..pattern..Pattern$GT$13into_searcher17he79afdc43853ffafE)
     108      108       50     4         /app/target/nanosplus/release/deps/legder_xelis-53a0edecdc8ef744.legder_xelis.24eea2af218bcfe3-cgu.0.rcgu.o:(.rel.text._ZN53_$LT$T$u20$as$u20$core..convert..TryInto$LT$U$GT$$GT$8try_into17he80af0ace2b6b2e4E)
     158      158        8     4         /app/target/nanosplus/release/deps/legder_xelis-53a0edecdc8ef744.legder_xelis.24eea2af218bcfe3-cgu.0.rcgu.o:(.rel.text._ZN53_$LT$core..fmt..Error$u20$as$u20$core..fmt..Debug$GT$3fmt17h001ea8bfe78df64fE)
     160      160       18     4         /app/target/nanosplus/release/deps/legder_xelis-53a0edecdc8ef744.legder_xelis.24eea2af218bcfe3-cgu.0.rcgu.o:(.rel.text._ZN58_$LT$alloc..string..String$u20$as$u20$core..fmt..Write$GT$10write_char17h54e22f85b9b75498E)
     178      178        8     4         /app/target/nanosplus/release/deps/legder_xelis-53a0edecdc8ef744.legder_xelis.24eea2af218bcfe3-cgu.0.rcgu.o:(.rel.text._ZN58_$LT$alloc..string..String$u20$as$u20$core..fmt..Write$GT$9write_str17heb4cb39d5114e6e5E)
     180      180       38     4         /app/target/nanosplus/release/deps/legder_xelis-53a0edecdc8ef744.legder_xelis.24eea2af218bcfe3-cgu.0.rcgu.o:(.rel.text._ZN5alloc3fmt6format17h63be608864c56853E)
     1b8      1b8       10     4         /app/target/nanosplus/release/deps/legder_xelis-53a0edecdc8ef744.legder_xelis.24eea2af218bcfe3-cgu.0.rcgu.o:(.rel.text._ZN5alloc3vec16Vec$LT$T$C$A$GT$4push17h1c7a2ee835567ae5E)
     1c8      1c8        8     4         /app/target/nanosplus/release/deps/legder_xelis-53a0edecdc8ef744.legder_xelis.24eea2af218bcfe3-cgu.0.rcgu.o:(.rel.text._ZN5alloc7raw_vec19RawVec$LT$T$C$A$GT$8grow_one17h836a07c566d599b1E)
     1d0      1d0        8     4         /app/target/nanosplus/release/deps/legder_xelis-53a0edecdc8ef744.legder_xelis.24eea2af218bcfe3-cgu.0.rcgu.o:(.rel.text._ZN5alloc7raw_vec19RawVec$LT$T$C$A$GT$8grow_one17hc395329555a066c3E)
     1d8      1d8       10     4         /app/target/nanosplus/release/deps/legder_xelis-53a0edecdc8ef744.legder_xelis.24eea2af218bcfe3-cgu.0.rcgu.o:(.rel.text._ZN5alloc7raw_vec19RawVec$LT$T$C$A$GT$8grow_one17hd62f64171f82e1c0E)
     1e8      1e8       10     4         /app/target/nanosplus/release/deps/legder_xelis-53a0edecdc8ef744.legder_xelis.24eea2af218bcfe3-cgu.0.rcgu.o:(.rel.text._ZN5alloc7raw_vec20RawVecInner$LT$A$GT$16with_capacity_in17hec46672469db15cfE)
     1f8      1f8       10     4         /app/target/nanosplus/release/deps/legder_xelis-53a0edecdc8ef744.legder_xelis.24eea2af218bcfe3-cgu.0.rcgu.o:(.rel.text._ZN5alloc7raw_vec20RawVecInner$LT$A$GT$23with_capacity_zeroed_in17h64ece80fa61b1ba5E)
     208      208        8     4         /app/target/nanosplus/release/deps/legder_xelis-53a0edecdc8ef744.legder_xelis.24eea2af218bcfe3-cgu.0.rcgu.o:(.rel.text._ZN5alloc7raw_vec20RawVecInner$LT$A$GT$7reserve17h065cf6b9e1edc08bE)
     210      210       10     4         /app/target/nanosplus/release/deps/legder_xelis-53a0edecdc8ef744.legder_xelis.24eea2af218bcfe3-cgu.0.rcgu.o:(.rel.text._ZN5alloc7raw_vec20RawVecInner$LT$A$GT$8grow_one17hd48a5f46380daafaE)
     220      220        8     4         /app/target/nanosplus/release/deps/legder_xelis-53a0edecdc8ef744.legder_xelis.24eea2af218bcfe3-cgu.0.rcgu.o:(.rel.text._ZN60_$LT$alloc..string..String$u20$as$u20$core..fmt..Display$GT$3fmt17h78b242d328865670E)
     228      228       20     4         /app/target/nanosplus/release/deps/legder_xelis-53a0edecdc8ef744.legder_xelis.24eea2af218bcfe3-cgu.0.rcgu.o:(.rel.text._ZN67_$LT$core..array..TryFromSliceError$u20$as$u20$core..fmt..Debug$GT$3fmt17h6745f7e496feee7cE)
     248      248       10     4         /app/target/nanosplus/release/deps/legder_xelis-53a0edecdc8ef744.legder_xelis.24eea2af218bcfe3-cgu.0.rcgu.o:(.rel.text._ZN81_$LT$alloc..vec..Vec$LT$T$C$A$GT$$u20$as$u20$core..ops..index..Index$LT$I$GT$$GT$5index17h50a64085f54df945E)
     258      258        8     4         /app/target/nanosplus/release/deps/legder_xelis-53a0edecdc8ef744.legder_xelis.24eea2af218bcfe3-cgu.0.rcgu.o:(.rel.text._ZN81_$LT$alloc..vec..Vec$LT$T$C$A$GT$$u20$as$u20$core..ops..index..Index$LT$I$GT$$GT$5index17hd5f934cd8db861beE)
     260      260       20     4         /app/target/nanosplus/release/deps/legder_xelis-53a0edecdc8ef744.legder_xelis.24eea2af218bcfe3-cgu.0.rcgu.o:(.rel.text._ZN81_$LT$core..str..pattern..CharSearcher$u20$as$u20$core..str..pattern..Searcher$GT$10next_match17hffa8ba89a8328c8fE)
     280      280        8     4         /app/target/nanosplus/release/deps/legder_xelis-53a0edecdc8ef744.legder_xelis.24eea2af218bcfe3-cgu.0.rcgu.o:(.rel.text._ZN84_$LT$alloc..vec..Vec$LT$T$C$A$GT$$u20$as$u20$core..ops..index..IndexMut$LT$I$GT$$GT$9index_mut17h61d3dfb1e543bdeeE)
     288      288        8     4         /app/target/nanosplus/release/deps/legder_xelis-53a0edecdc8ef744.legder_xelis.24eea2af218bcfe3-cgu.0.rcgu.o:(.rel.text._ZN84_$LT$alloc..vec..Vec$LT$T$C$A$GT$$u20$as$u20$core..ops..index..IndexMut$LT$I$GT$$GT$9index_mut17hb5ca6f096cbeb58cE)
     290      290        8     4         /app/target/nanosplus/release/deps/legder_xelis-53a0edecdc8ef744.legder_xelis.24eea2af218bcfe3-cgu.0.rcgu.o:(.rel.text._ZN90_$LT$core..str..iter..Split$LT$P$GT$$u20$as$u20$core..iter..traits..iterator..Iterator$GT$4next17hdcf7cf4a2c3f98f6E)
     298      298       98     4         /app/target/nanosplus/release/deps/legder_xelis-53a0edecdc8ef744.legder_xelis.24eea2af218bcfe3-cgu.0.rcgu.o:(.rel.text._ZN12legder_xelis6crypto7address7Address8to_bytes17h8fa55f66ee008f81E)
     330      330        8     4         /app/target/nanosplus/release/deps/legder_xelis-53a0edecdc8ef744.legder_xelis.24eea2af218bcfe3-cgu.0.rcgu.o:(.rel.text._ZN12legder_xelis6crypto7address12polymod_step17h814c2effa4d0d53bE)
     338      338      168     4         /app/target/nanosplus/release/deps/legder_xelis-53a0edecdc8ef744.legder_xelis.24eea2af218bcfe3-cgu.0.rcgu.o:(.rel.text._ZN12legder_xelis6crypto7address19format_address_safe17h9d82f972eb17084bE)
     4a0      4a0       18     4         /app/target/nanosplus/release/deps/legder_xelis-53a0edecdc8ef744.legder_xelis.24eea2af218bcfe3-cgu.0.rcgu.o:(.rel.text._ZN12legder_xelis6crypto9ristretto19CompressedRistretto11to_le_bytes17hbcfc542a5ba59e06E)
     4b8      4b8       10     4         /app/target/nanosplus/release/deps/legder_xelis-53a0edecdc8ef744.legder_xelis.24eea2af218bcfe3-cgu.0.rcgu.o:(.rel.text._ZN12legder_xelis6crypto9ristretto11fe25519_mul17h320d862f2e407a01E)
     4c8      4c8       10     4         /app/target/nanosplus/release/deps/legder_xelis-53a0edecdc8ef744.legder_xelis.24eea2af218bcfe3-cgu.0.rcgu.o:(.rel.text._ZN12legder_xelis6crypto9ristretto11fe25519_add17hdee45e1364b7c0e6E)
     4d8      4d8       10     4         /app/target/nanosplus/release/deps/legder_xelis-53a0edecdc8ef744.legder_xelis.24eea2af218bcfe3-cgu.0.rcgu.o:(.rel.text._ZN12legder_xelis6crypto9ristretto11fe25519_sub17h2c33ab69e67ecab7E)
     4e8      4e8       10     4         /app/target/nanosplus/release/deps/legder_xelis-53a0edecdc8ef744.legder_xelis.24eea2af218bcfe3-cgu.0.rcgu.o:(.rel.text._ZN12legder_xelis6crypto9ristretto11fe25519_neg17h7ff8adee3d7e32d1E)
     4f8      4f8      238     4         /app/target/nanosplus/release/deps/legder_xelis-53a0edecdc8ef744.legder_xelis.24eea2af218bcfe3-cgu.0.rcgu.o:(.rel.text._ZN12legder_xelis6crypto9ristretto14RistrettoPoint8compress17h5d254482cdbc76fcE)
     730      730       58     4         /app/target/nanosplus/release/deps/legder_xelis-53a0edecdc8ef744.legder_xelis.24eea2af218bcfe3-cgu.0.rcgu.o:(.rel.text._ZN12legder_xelis6crypto9ristretto21scalar_mult_ristretto17ha7234f330d8837fdE)
     788      788      120     4         /app/target/nanosplus/release/deps/legder_xelis-53a0edecdc8ef744.legder_xelis.24eea2af218bcfe3-cgu.0.rcgu.o:(.rel.text._ZN12legder_xelis6crypto9ristretto11edwards_add17h128f4b4bb68a1e0fE)
     8a8      8a8       50     4         /app/target/nanosplus/release/deps/legder_xelis-53a0edecdc8ef744.legder_xelis.24eea2af218bcfe3-cgu.0.rcgu.o:(.rel.text._ZN12legder_xelis6crypto9ristretto25xelis_public_from_private17h6d7b7d5b190ef03dE)
     8f8      8f8       38     4         /app/target/nanosplus/release/deps/legder_xelis-53a0edecdc8ef744.legder_xelis.24eea2af218bcfe3-cgu.0.rcgu.o:(.rel.text._ZN12legder_xelis6crypto6scalar13scalar_invert17h2a85986a077f9372E)
     930      930       10     4         /app/target/nanosplus/release/deps/legder_xelis-53a0edecdc8ef744.legder_xelis.24eea2af218bcfe3-cgu.0.rcgu.o:(.rel.text._ZN12legder_xelis6crypto6secure23SensitiveBytes$LT$_$GT$15copy_from_slice17hbb2ea38c76156cabE)
     940      940        8     4         /app/target/nanosplus/release/deps/legder_xelis-53a0edecdc8ef744.legder_xelis.24eea2af218bcfe3-cgu.0.rcgu.o:(.rel.text._ZN95_$LT$legder_xelis..crypto..secure..SensitiveBytes$LT$_$GT$$u20$as$u20$core..ops..drop..Drop$GT$4drop17h823b72db9f0e8515E)
     948      948        8     4         /app/target/nanosplus/release/deps/legder_xelis-53a0edecdc8ef744.legder_xelis.24eea2af218bcfe3-cgu.0.rcgu.o:(.rel.text._ZN95_$LT$legder_xelis..crypto..secure..SensitiveBytes$LT$_$GT$$u20$as$u20$core..ops..drop..Drop$GT$4drop17hc38014b3a4dcb853E)
     950      950       30     4         /app/target/nanosplus/release/deps/legder_xelis-53a0edecdc8ef744.legder_xelis.24eea2af218bcfe3-cgu.0.rcgu.o:(.rel.text._ZN12legder_xelis6crypto3sha4sha38sha3_51217hf4ad30e67c2a5408E)
     980      980       28     4         /app/target/nanosplus/release/deps/legder_xelis-53a0edecdc8ef744.legder_xelis.24eea2af218bcfe3-cgu.0.rcgu.o:(.rel.text._ZN12legder_xelis6crypto9signature26reduce_mod_l_wide_le_to_be17h5a926759bff8bc1eE)
     9a8      9a8       18     4         /app/target/nanosplus/release/deps/legder_xelis-53a0edecdc8ef744.legder_xelis.24eea2af218bcfe3-cgu.0.rcgu.o:(.rel.text._ZN12legder_xelis5utils13to_hex_string17h1c68428b40059386E)
     9c0      9c0        8     4         /app/target/nanosplus/release/deps/legder_xelis-53a0edecdc8ef744.legder_xelis.24eea2af218bcfe3-cgu.0.rcgu.o:(.rel.text._ZN12legder_xelis3xlb11memo_ws_mut17h4732ab960eeb0426E)
     9c8      9c8        8     4         /app/target/nanosplus/release/deps/legder_xelis-53a0edecdc8ef744.legder_xelis.24eea2af218bcfe3-cgu.0.rcgu.o:(.rel.text._ZN12legder_xelis3xlb11read_leb12817h6bea377bba4674d9E)
     9d0      9d0       20     4         /app/target/nanosplus/release/deps/legder_xelis-53a0edecdc8ef744.legder_xelis.24eea2af218bcfe3-cgu.0.rcgu.o:(.rel.text._ZN12legder_xelis6app_ui4sign13format_amount17hbea2e4f2daf97837E)
     9f0      9f0       28     4         /app/target/nanosplus/release/deps/legder_xelis-53a0edecdc8ef744.legder_xelis.24eea2af218bcfe3-cgu.0.rcgu.o:(.rel.text._ZN12legder_xelis8handlers7sign_tx9TxContext5reset17h3a74307600c1a930E)
     a18      a18       18     4         /app/target/nanosplus/release/deps/legder_xelis-53a0edecdc8ef744.legder_xelis.24eea2af218bcfe3-cgu.0.rcgu.o:(.rel.text._ZN12legder_xelis8settings8Settings7get_mut17h92553feef478df5cE)
     a30      a30      c00     4         /app/target/nanosplus/release/deps/legder_xelis-53a0edecdc8ef744.legder_xelis.24eea2af218bcfe3-cgu.0.rcgu.o:(.rel.text.sample_main)
    1630     1630        8     4         /app/target/nanosplus/release/deps/legder_xelis-53a0edecdc8ef744.legder_xelis.24eea2af218bcfe3-cgu.0.rcgu.o:(.rel.text.rust_begin_unwind)
    1638     1638        8     4         /app/target/nanosplus/release/deps/legder_xelis-53a0edecdc8ef744.legder_xelis.24eea2af218bcfe3-cgu.0.rcgu.o:(.rel.text.__rust_alloc_error_handler)
    1640     1640        8     4         /app/target/nanosplus/release/deps/legder_xelis-53a0edecdc8ef744.legder_xelis.24eea2af218bcfe3-cgu.0.rcgu.o:(.rel.text._ZN5alloc3vec16Vec$LT$T$C$A$GT$4push17h81fad76c68e1062aE)
    1648     1648       10     4         /app/target/nanosplus/release/deps/legder_xelis-53a0edecdc8ef744.legder_xelis.24eea2af218bcfe3-cgu.0.rcgu.o:(.rel.text._ZN132_$LT$alloc..vec..Vec$LT$T$C$A$GT$$u20$as$u20$alloc..vec..spec_extend..SpecExtend$LT$$RF$T$C$core..slice..iter..Iter$LT$T$GT$$GT$$GT$11spec_extend17h291ec4a92d8b1fc3E)
    1658     1658       10     4         /app/target/nanosplus/release/deps/legder_xelis-53a0edecdc8ef744.legder_xelis.24eea2af218bcfe3-cgu.0.rcgu.o:(.rel.text.unlikely._ZN5alloc7raw_vec20RawVecInner$LT$A$GT$7reserve21do_reserve_and_handle17hbd53bfc4dac0369dE)
    1668     1668        8     4         /app/target/nanosplus/release/deps/legder_xelis-53a0edecdc8ef744.legder_xelis.24eea2af218bcfe3-cgu.0.rcgu.o:(.rel.text._ZN5alloc7raw_vec20RawVecInner$LT$A$GT$14grow_amortized17h51d7e6154e21cc47E)
    1670     1670       10     4         /app/target/nanosplus/release/deps/legder_xelis-53a0edecdc8ef744.legder_xelis.24eea2af218bcfe3-cgu.0.rcgu.o:(.rel.text.unlikely._ZN5alloc7raw_vec12handle_error17hc7fdd822ef9ed6cbE)
    1680     1680        8     4         /app/target/nanosplus/release/deps/legder_xelis-53a0edecdc8ef744.legder_xelis.24eea2af218bcfe3-cgu.0.rcgu.o:(.rel.text._ZN5alloc7raw_vec17capacity_overflow17h882466dfad2cd630E)
    1688     1688        8     4         /app/target/nanosplus/release/deps/legder_xelis-53a0edecdc8ef744.legder_xelis.24eea2af218bcfe3-cgu.0.rcgu.o:(.rel.text.unlikely._ZN5alloc5alloc18handle_alloc_error17hd4ed90cbd42cc1c2E)
    1690     1690        8     4         /app/target/nanosplus/release/deps/legder_xelis-53a0edecdc8ef744.legder_xelis.24eea2af218bcfe3-cgu.0.rcgu.o:(.rel.text._ZN5alloc5alloc18handle_alloc_error8rt_error17h9f9682acc5a52fb0E)
    1698     1698       18     4         /app/target/nanosplus/release/deps/legder_xelis-53a0edecdc8ef744.legder_xelis.24eea2af218bcfe3-cgu.0.rcgu.o:(.rel.text.unlikely._ZN5alloc7raw_vec11finish_grow17h1bae8b109ac631edE)
    16b0     16b0       20     4         /app/target/nanosplus/release/deps/legder_xelis-53a0edecdc8ef744.legder_xelis.24eea2af218bcfe3-cgu.0.rcgu.o:(.rel.text._ZN5alloc5alloc6Global10alloc_impl17hea64d796aae0eacbE)
    16d0     16d0        8     4         /app/target/nanosplus/release/deps/legder_xelis-53a0edecdc8ef744.legder_xelis.24eea2af218bcfe3-cgu.0.rcgu.o:(.rel.text._ZN63_$LT$alloc..alloc..Global$u20$as$u20$core..alloc..Allocator$GT$8allocate17he9c12d751ea52f53E)
    16d8     16d8       10     4         /app/target/nanosplus/release/deps/legder_xelis-53a0edecdc8ef744.legder_xelis.24eea2af218bcfe3-cgu.0.rcgu.o:(.rel.text._ZN5alloc7raw_vec19RawVec$LT$T$C$A$GT$8grow_one17h9d8179aeec86b2e6E)
    16e8     16e8       10     4         /app/target/nanosplus/release/deps/legder_xelis-53a0edecdc8ef744.legder_xelis.24eea2af218bcfe3-cgu.0.rcgu.o:(.rel.text._ZN4core3fmt5Write9write_fmt17hd85b6fa056ecdbe8E)
    16f8     16f8       10     4         /app/target/nanosplus/release/deps/legder_xelis-53a0edecdc8ef744.legder_xelis.24eea2af218bcfe3-cgu.0.rcgu.o:(.rel.text._ZN58_$LT$alloc..string..String$u20$as$u20$core..fmt..Write$GT$10write_char17h54e22f85b9b75498E.12)
    1708     1708        8     4         /app/target/nanosplus/release/deps/legder_xelis-53a0edecdc8ef744.legder_xelis.24eea2af218bcfe3-cgu.0.rcgu.o:(.rel.text._ZN77_$LT$alloc..raw_vec..RawVec$LT$T$C$A$GT$$u20$as$u20$core..ops..drop..Drop$GT$4drop17h0abeb57adce07278E)
    1710     1710        8     4         /app/target/nanosplus/release/deps/legder_xelis-53a0edecdc8ef744.legder_xelis.24eea2af218bcfe3-cgu.0.rcgu.o:(.rel.text._ZN5alloc7raw_vec20RawVecInner$LT$A$GT$10deallocate17h37e47151dd2982d7E)
    1718     1718        8     4         /app/target/nanosplus/release/deps/legder_xelis-53a0edecdc8ef744.legder_xelis.24eea2af218bcfe3-cgu.0.rcgu.o:(.rel.text._ZN63_$LT$alloc..alloc..Global$u20$as$u20$core..alloc..Allocator$GT$10deallocate17h8838a9711ef750adE)
    1720     1720       18     4         /app/target/nanosplus/release/deps/legder_xelis-53a0edecdc8ef744.legder_xelis.24eea2af218bcfe3-cgu.0.rcgu.o:(.rel.text._ZN5alloc7raw_vec20RawVecInner$LT$A$GT$15try_allocate_in17h7114d0fb80dd1c75E)
    1738     1738        8     4         /app/target/nanosplus/release/deps/legder_xelis-53a0edecdc8ef744.legder_xelis.24eea2af218bcfe3-cgu.0.rcgu.o:(.rel.text.__rdl_oom)
    1740     1740       10     4         /app/target/nanosplus/release/deps/legder_xelis-53a0edecdc8ef744.legder_xelis.24eea2af218bcfe3-cgu.0.rcgu.o:(.rel.text._ZN5alloc3vec16Vec$LT$T$C$A$GT$16with_capacity_in17hc736ede785de68a6E)
    1750     1750       50     4         /app/target/nanosplus/release/deps/legder_xelis-53a0edecdc8ef744.legder_xelis.24eea2af218bcfe3-cgu.0.rcgu.o:(.rel.text._ZN72_$LT$$RF$str$u20$as$u20$alloc..ffi..c_str..CString..new..SpecNewImpl$GT$13spec_new_impl17hd2f440c1cd931c23E)
    17a0     17a0       10     4         /app/target/nanosplus/release/deps/legder_xelis-53a0edecdc8ef744.legder_xelis.24eea2af218bcfe3-cgu.0.rcgu.o:(.rel.text._ZN69_$LT$alloc..ffi..c_str..CString$u20$as$u20$core..default..Default$GT$7default17ha10cd83c3e37cf3dE)
    17b0     17b0       10     4         /app/target/nanosplus/release/deps/legder_xelis-53a0edecdc8ef744.legder_xelis.24eea2af218bcfe3-cgu.0.rcgu.o:(.rel.text._ZN5alloc5slice64_$LT$impl$u20$alloc..borrow..ToOwned$u20$for$u20$$u5b$T$u5d$$GT$8to_owned17h00b0797bb480f080E)
    17c0     17c0       10     4         /app/target/nanosplus/release/deps/legder_xelis-53a0edecdc8ef744.legder_xelis.24eea2af218bcfe3-cgu.0.rcgu.o:(.rel.text._ZN4core3fmt3num3imp54_$LT$impl$u20$core..fmt..Display$u20$for$u20$usize$GT$3fmt17hedd684a81fc099d6E)
    17d0     17d0       48     4         /app/target/nanosplus/release/deps/legder_xelis-53a0edecdc8ef744.legder_xelis.24eea2af218bcfe3-cgu.0.rcgu.o:(.rel.text._ZN4core3fmt9Formatter12pad_integral17h4ee28442901cb8eeE)
    1818     1818       20     4         /app/target/nanosplus/release/deps/legder_xelis-53a0edecdc8ef744.legder_xelis.24eea2af218bcfe3-cgu.0.rcgu.o:(.rel.text._ZN81_$LT$core..str..iter..Chars$u20$as$u20$core..iter..traits..iterator..Iterator$GT$5count17ha904057f49d7d435E)
    1838     1838        8     4         /app/target/nanosplus/release/deps/legder_xelis-53a0edecdc8ef744.legder_xelis.24eea2af218bcfe3-cgu.0.rcgu.o:(.rel.text._ZN4core3fmt11PostPadding5write17he5283145b4049661E)
    1840     1840       10     4         /app/target/nanosplus/release/deps/legder_xelis-53a0edecdc8ef744.legder_xelis.24eea2af218bcfe3-cgu.0.rcgu.o:(.rel.text._ZN4core5slice29_$LT$impl$u20$$u5b$T$u5d$$GT$15copy_from_slice17h488438e61ed3b373E)
    1850     1850        8     4         /app/target/nanosplus/release/deps/legder_xelis-53a0edecdc8ef744.legder_xelis.24eea2af218bcfe3-cgu.0.rcgu.o:(.rel.text.unlikely._ZN4core5slice29_$LT$impl$u20$$u5b$T$u5d$$GT$15copy_from_slice17len_mismatch_fail17hf32c1a918f7963caE)
    1858     1858       38     4         /app/target/nanosplus/release/deps/legder_xelis-53a0edecdc8ef744.legder_xelis.24eea2af218bcfe3-cgu.0.rcgu.o:(.rel.text._ZN4core3fmt9Formatter3pad17h625f016dc2ab4916E)
    1890     1890        8     4         /app/target/nanosplus/release/deps/legder_xelis-53a0edecdc8ef744.legder_xelis.24eea2af218bcfe3-cgu.0.rcgu.o:(.rel.text._ZN87_$LT$core..str..iter..CharIndices$u20$as$u20$core..iter..traits..iterator..Iterator$GT$4next17h3fcdcb19dadd6711E)
    1898     1898        8     4         /app/target/nanosplus/release/deps/legder_xelis-53a0edecdc8ef744.legder_xelis.24eea2af218bcfe3-cgu.0.rcgu.o:(.rel.text.unlikely._ZN4core9panicking5panic17hf8da2ad9a2e63b4aE)
    18a0     18a0        8     4         /app/target/nanosplus/release/deps/legder_xelis-53a0edecdc8ef744.legder_xelis.24eea2af218bcfe3-cgu.0.rcgu.o:(.rel.text.unlikely._ZN4core9panicking19assert_failed_inner17h497bbe59bc18eeb5E)
    18a8     18a8        8     4         /app/target/nanosplus/release/deps/legder_xelis-53a0edecdc8ef744.legder_xelis.24eea2af218bcfe3-cgu.0.rcgu.o:(.rel.text._ZN44_$LT$$RF$T$u20$as$u20$core..fmt..Display$GT$3fmt17h071c21c59cb6152dE)
    18b0     18b0       18     4         /app/target/nanosplus/release/deps/legder_xelis-53a0edecdc8ef744.legder_xelis.24eea2af218bcfe3-cgu.0.rcgu.o:(.rel.text._ZN4core3fmt5write17h2276077147cd1485E)
    18c8     18c8       18     4         /app/target/nanosplus/release/deps/legder_xelis-53a0edecdc8ef744.legder_xelis.24eea2af218bcfe3-cgu.0.rcgu.o:(.rel.text._ZN4core3fmt3num3imp52_$LT$impl$u20$core..fmt..Display$u20$for$u20$u64$GT$3fmt17h2dd46a595e71a414E)
    18e0     18e0        8     4         /app/target/nanosplus/release/deps/legder_xelis-53a0edecdc8ef744.legder_xelis.24eea2af218bcfe3-cgu.0.rcgu.o:(.rel.text.unlikely._ZN4core5slice5index22slice_index_order_fail17ha533745be2d5d054E)
    18e8     18e8        8     4         /app/target/nanosplus/release/deps/legder_xelis-53a0edecdc8ef744.legder_xelis.24eea2af218bcfe3-cgu.0.rcgu.o:(.rel.text._ZN4core5slice5index22slice_index_order_fail8do_panic7runtime17hcd79df322e5c2350E)
    18f0     18f0       10     4         /app/target/nanosplus/release/deps/legder_xelis-53a0edecdc8ef744.legder_xelis.24eea2af218bcfe3-cgu.0.rcgu.o:(.rel.text._ZN4core3fmt3num55_$LT$impl$u20$core..fmt..LowerHex$u20$for$u20$usize$GT$3fmt17h795dc19ac3e95fe1E)
    1900     1900       10     4         /app/target/nanosplus/release/deps/legder_xelis-53a0edecdc8ef744.legder_xelis.24eea2af218bcfe3-cgu.0.rcgu.o:(.rel.text._ZN4core3fmt3num55_$LT$impl$u20$core..fmt..UpperHex$u20$for$u20$usize$GT$3fmt17h45f3417b4ee03250E)
    1910     1910       38     4         /app/target/nanosplus/release/deps/legder_xelis-53a0edecdc8ef744.legder_xelis.24eea2af218bcfe3-cgu.0.rcgu.o:(.rel.text._ZN68_$LT$core..fmt..builders..PadAdapter$u20$as$u20$core..fmt..Write$GT$9write_str17h2ffe822380d84e7dE)
    1948     1948        8     4         /app/target/nanosplus/release/deps/legder_xelis-53a0edecdc8ef744.legder_xelis.24eea2af218bcfe3-cgu.0.rcgu.o:(.rel.text._ZN4core3cmp5impls69_$LT$impl$u20$core..cmp..PartialEq$LT$$RF$B$GT$$u20$for$u20$$RF$A$GT$2eq17h981c27d8bd960054E)
    1950     1950        8     4         /app/target/nanosplus/release/deps/legder_xelis-53a0edecdc8ef744.legder_xelis.24eea2af218bcfe3-cgu.0.rcgu.o:(.rel.text._ZN73_$LT$$u5b$A$u5d$$u20$as$u20$core..slice..cmp..SlicePartialEq$LT$B$GT$$GT$5equal17hb7b5a37985138661E)
    1958     1958       10     4         /app/target/nanosplus/release/deps/legder_xelis-53a0edecdc8ef744.legder_xelis.24eea2af218bcfe3-cgu.0.rcgu.o:(.rel.text._ZN4core5slice6memchr14memchr_aligned17h1835a9bae932372eE)
    1968     1968        8     4         /app/target/nanosplus/release/deps/legder_xelis-53a0edecdc8ef744.legder_xelis.24eea2af218bcfe3-cgu.0.rcgu.o:(.rel.text.unlikely._ZN4core4cell22panic_already_borrowed17h14110f611f3bf771E)
    1970     1970        8     4         /app/target/nanosplus/release/deps/legder_xelis-53a0edecdc8ef744.legder_xelis.24eea2af218bcfe3-cgu.0.rcgu.o:(.rel.text._ZN68_$LT$core..fmt..builders..PadAdapter$u20$as$u20$core..fmt..Write$GT$10write_char17hf917504149708b11E)
    1978     1978       20     4         /app/target/nanosplus/release/deps/legder_xelis-53a0edecdc8ef744.legder_xelis.24eea2af218bcfe3-cgu.0.rcgu.o:(.rel.text._ZN4core3fmt5Write9write_fmt17h443c5a0ebfb64c11E)
    1998     1998       10     4         /app/target/nanosplus/release/deps/legder_xelis-53a0edecdc8ef744.legder_xelis.24eea2af218bcfe3-cgu.0.rcgu.o:(.rel.text.unlikely._ZN4core6option13unwrap_failed17h047360c91be041adE)
    19a8     19a8        8     4         /app/target/nanosplus/release/deps/legder_xelis-53a0edecdc8ef744.legder_xelis.24eea2af218bcfe3-cgu.0.rcgu.o:(.rel.text.unlikely._ZN4core6result13unwrap_failed17hd664c74235147e64E)
    19b0     19b0        8     4         /app/target/nanosplus/release/deps/legder_xelis-53a0edecdc8ef744.legder_xelis.24eea2af218bcfe3-cgu.0.rcgu.o:(.rel.text.unlikely._ZN4core9panicking18panic_nounwind_fmt17h139e7cef88d473d1E)
    19b8     19b8       30     4         /app/target/nanosplus/release/deps/legder_xelis-53a0edecdc8ef744.legder_xelis.24eea2af218bcfe3-cgu.0.rcgu.o:(.rel.text._ZN4core3fmt8builders10DebugTuple10field_with17h80f717c6f56bd72cE)
    19e8     19e8       10     4         /app/target/nanosplus/release/deps/legder_xelis-53a0edecdc8ef744.legder_xelis.24eea2af218bcfe3-cgu.0.rcgu.o:(.rel.text._ZN4core3fmt8builders10DebugTuple6finish17h3b6b54e029910633E)
    19f8     19f8        8     4         /app/target/nanosplus/release/deps/legder_xelis-53a0edecdc8ef744.legder_xelis.24eea2af218bcfe3-cgu.0.rcgu.o:(.rel.text.unlikely._ZN4core3str16slice_error_fail17hbc56068ba0bc111dE)
    1a00     1a00       38     4         /app/target/nanosplus/release/deps/legder_xelis-53a0edecdc8ef744.legder_xelis.24eea2af218bcfe3-cgu.0.rcgu.o:(.rel.text._ZN4core3str19slice_error_fail_rt17h3978e6c12548ec4dE)
    1a38     1a38        8     4         /app/target/nanosplus/release/deps/legder_xelis-53a0edecdc8ef744.legder_xelis.24eea2af218bcfe3-cgu.0.rcgu.o:(.rel.text._ZN4core3str21_$LT$impl$u20$str$GT$19floor_char_boundary17h515bb750f4bc5d88E)
    1a40     1a40       10     4         /app/target/nanosplus/release/deps/legder_xelis-53a0edecdc8ef744.legder_xelis.24eea2af218bcfe3-cgu.0.rcgu.o:(.rel.text._ZN42_$LT$$RF$T$u20$as$u20$core..fmt..Debug$GT$3fmt17h67dfb30e2cf1d554E)
    1a50     1a50       10     4         /app/target/nanosplus/release/deps/legder_xelis-53a0edecdc8ef744.legder_xelis.24eea2af218bcfe3-cgu.0.rcgu.o:(.rel.text._ZN4core4cell16RefCell$LT$T$GT$10borrow_mut17he788f9a58ea9b1eaE)
    1a60     1a60       30     4         /app/target/nanosplus/release/deps/legder_xelis-53a0edecdc8ef744.legder_xelis.24eea2af218bcfe3-cgu.0.rcgu.o:(.rel.text._ZN73_$LT$embedded_alloc..Heap$u20$as$u20$core..alloc..global..GlobalAlloc$GT$5alloc17hf27227034d5f4042E)
    1a90     1a90       48     4         /app/target/nanosplus/release/deps/legder_xelis-53a0edecdc8ef744.legder_xelis.24eea2af218bcfe3-cgu.0.rcgu.o:(.rel.text._ZN73_$LT$embedded_alloc..Heap$u20$as$u20$core..alloc..global..GlobalAlloc$GT$7dealloc17h4dc32580b39691beE)
    1ad8     1ad8        8     4         /app/target/nanosplus/release/deps/legder_xelis-53a0edecdc8ef744.legder_xelis.24eea2af218bcfe3-cgu.0.rcgu.o:(.rel.text._ZN4core3ptr48drop_in_place$LT$alloc..ffi..c_str..NulError$GT$17h332772dcc1978d2eE)
    1ae0     1ae0       30     4         /app/target/nanosplus/release/deps/legder_xelis-53a0edecdc8ef744.legder_xelis.24eea2af218bcfe3-cgu.0.rcgu.o:(.rel.text._ZN64_$LT$alloc..ffi..c_str..NulError$u20$as$u20$core..fmt..Debug$GT$3fmt17hc650f3db248ec53aE)
    1b10     1b10       48     4         /app/target/nanosplus/release/deps/legder_xelis-53a0edecdc8ef744.legder_xelis.24eea2af218bcfe3-cgu.0.rcgu.o:(.rel.text._ZN42_$LT$$RF$T$u20$as$u20$core..fmt..Debug$GT$3fmt17h076fde650b19347dE)
    1b58     1b58       20     4         /app/target/nanosplus/release/deps/legder_xelis-53a0edecdc8ef744.legder_xelis.24eea2af218bcfe3-cgu.0.rcgu.o:(.rel.text._ZN42_$LT$$RF$T$u20$as$u20$core..fmt..Debug$GT$3fmt17h074819073196147cE)
    1b78     1b78       18     4         /app/target/nanosplus/release/deps/legder_xelis-53a0edecdc8ef744.legder_xelis.24eea2af218bcfe3-cgu.0.rcgu.o:(.rel.text._ZN4core3fmt3num52_$LT$impl$u20$core..fmt..Debug$u20$for$u20$usize$GT$3fmt17h371af73bdd3b16bfE.124)
    1b90     1b90       10     4         /app/target/nanosplus/release/deps/legder_xelis-53a0edecdc8ef744.legder_xelis.24eea2af218bcfe3-cgu.0.rcgu.o:(.rel.text._ZN5alloc7raw_vec20RawVecInner$LT$A$GT$16with_capacity_in17h641e4ecd4581db87E)
    1ba0     1ba0        8     4         /app/target/nanosplus/release/deps/legder_xelis-53a0edecdc8ef744.legder_xelis.24eea2af218bcfe3-cgu.0.rcgu.o:(.rel.text._ZN5alloc7raw_vec20RawVecInner$LT$A$GT$7reserve17h3ca65c3e3f9cdb17E)
    1ba8     1ba8        8     4         /app/target/nanosplus/release/deps/legder_xelis-53a0edecdc8ef744.legder_xelis.24eea2af218bcfe3-cgu.0.rcgu.o:(.rel.text.unlikely._ZN4core9panicking13assert_failed17hcdd565a4cf09ae96E)
    1bb0     1bb0       10     4         /app/target/nanosplus/release/deps/legder_xelis-53a0edecdc8ef744.legder_xelis.24eea2af218bcfe3-cgu.0.rcgu.o:(.rel.text._ZN5alloc7raw_vec19RawVec$LT$T$C$A$GT$8grow_one17he3865c2527960aeaE)
    1bc0     1bc0        8     4         /app/target/nanosplus/release/deps/legder_xelis-53a0edecdc8ef744.legder_xelis.24eea2af218bcfe3-cgu.0.rcgu.o:(.rel.text._ZN69_$LT$T$u20$as$u20$core..array..equality..SpecArrayEq$LT$U$C$_$GT$$GT$7spec_eq17hb513b46f39bc054eE)
    1bc8     1bc8        8     4         /app/target/nanosplus/release/deps/legder_xelis-53a0edecdc8ef744.legder_xelis.24eea2af218bcfe3-cgu.0.rcgu.o:(.rel.text._ZN17ledger_device_sdk3ecc12bip32_derive17hea48d836f9390347E)
    1bd0     1bd0       38     4         /app/target/nanosplus/release/deps/legder_xelis-53a0edecdc8ef744.legder_xelis.24eea2af218bcfe3-cgu.0.rcgu.o:(.rel.text._ZN17ledger_device_sdk2io4Comm9apdu_send17h7c75d19cd2562d16E)
    1c08     1c08       70     4         /app/target/nanosplus/release/deps/legder_xelis-53a0edecdc8ef744.legder_xelis.24eea2af218bcfe3-cgu.0.rcgu.o:(.rel.text._ZN17ledger_device_sdk2io4Comm16next_event_ahead17h7c67538bc32c5b1eE)
    1c78     1c78       10     4         /app/target/nanosplus/release/deps/legder_xelis-53a0edecdc8ef744.legder_xelis.24eea2af218bcfe3-cgu.0.rcgu.o:(.rel.text._ZN17ledger_device_sdk2io4Comm5reply17h45ea8ba1b93842b2E)
    1c88     1c88       10     4         /app/target/nanosplus/release/deps/legder_xelis-53a0edecdc8ef744.legder_xelis.24eea2af218bcfe3-cgu.0.rcgu.o:(.rel.text._ZN17ledger_device_sdk2io4Comm8get_data17h5b0847bc6a4a115fE)
    1c98     1c98       58     4         /app/target/nanosplus/release/deps/legder_xelis-53a0edecdc8ef744.legder_xelis.24eea2af218bcfe3-cgu.0.rcgu.o:(.rel.text._ZN17ledger_device_sdk2io17handle_bolos_apdu17hf0a7d25910c19250E)
    1cf0     1cf0        8     4         /app/target/nanosplus/release/deps/legder_xelis-53a0edecdc8ef744.legder_xelis.24eea2af218bcfe3-cgu.0.rcgu.o:(.rel.text._ZN17ledger_device_sdk2io4Comm8reply_ok17hb1e6881c729172efE)
    1cf8     1cf8        8     4         /app/target/nanosplus/release/deps/legder_xelis-53a0edecdc8ef744.legder_xelis.24eea2af218bcfe3-cgu.0.rcgu.o:(.rel.text._ZN17ledger_device_sdk2io4Comm8get_data28_$u7b$$u7b$closure$u7d$$u7d$17h9ac651ea71406235E)
    1d00     1d00       10     4         /app/target/nanosplus/release/deps/legder_xelis-53a0edecdc8ef744.legder_xelis.24eea2af218bcfe3-cgu.0.rcgu.o:(.rel.text._ZN17ledger_device_sdk2io4Comm6append17h050eed4b704b6446E)
    1d10     1d10        8     4         /app/target/nanosplus/release/deps/legder_xelis-53a0edecdc8ef744.legder_xelis.24eea2af218bcfe3-cgu.0.rcgu.o:(.rel.text._ZN114_$LT$ledger_device_sdk..nvm..AlignedStorage$LT$T$GT$$u20$as$u20$ledger_device_sdk..nvm..SingleStorage$LT$T$GT$$GT$6update17h314057aff6020936E)
    1d18     1d18       28     4         /app/target/nanosplus/release/deps/legder_xelis-53a0edecdc8ef744.legder_xelis.24eea2af218bcfe3-cgu.0.rcgu.o:(.rel.text._ZN111_$LT$ledger_device_sdk..nvm..SafeStorage$LT$T$GT$$u20$as$u20$ledger_device_sdk..nvm..SingleStorage$LT$T$GT$$GT$6update17h0fcb236bda685166E)
    1d40     1d40        8     4         /app/target/nanosplus/release/deps/legder_xelis-53a0edecdc8ef744.legder_xelis.24eea2af218bcfe3-cgu.0.rcgu.o:(.rel.text._ZN17ledger_device_sdk3nvm22AtomicStorage$LT$T$GT$5which17h05f94ce09e3220c0E)
    1d48     1d48       10     4         /app/target/nanosplus/release/deps/legder_xelis-53a0edecdc8ef744.legder_xelis.24eea2af218bcfe3-cgu.0.rcgu.o:(.rel.text._ZN113_$LT$ledger_device_sdk..nvm..AtomicStorage$LT$T$GT$$u20$as$u20$ledger_device_sdk..nvm..SingleStorage$LT$T$GT$$GT$7get_ref17h909fbefbc2ccc1faE)
    1d58     1d58        8     4         /app/target/nanosplus/release/deps/legder_xelis-53a0edecdc8ef744.legder_xelis.24eea2af218bcfe3-cgu.0.rcgu.o:(.rel.text._ZN128_$LT$$RF$ledger_device_sdk..nbgl..NbglGlyph$u20$as$u20$core..convert..Into$LT$ledger_secure_sdk_sys..nbgl_icon_details_s$GT$$GT$4into17h09942e77cfe830daE)
    1d60     1d60        8     4         /app/target/nanosplus/release/deps/legder_xelis-53a0edecdc8ef744.legder_xelis.24eea2af218bcfe3-cgu.0.rcgu.o:(.rel.text._ZN17ledger_device_sdk4nbgl15choice_callback17h4598a5eaaee274b0E)
    1d68     1d68       50     4         /app/target/nanosplus/release/deps/legder_xelis-53a0edecdc8ef744.legder_xelis.24eea2af218bcfe3-cgu.0.rcgu.o:(.rel.text._ZN17ledger_device_sdk4nbgl22nbgl_home_and_settings17settings_callback17h0368868e02c1b94dE)
    1db8     1db8       58     4         /app/target/nanosplus/release/deps/legder_xelis-53a0edecdc8ef744.legder_xelis.24eea2af218bcfe3-cgu.0.rcgu.o:(.rel.text._ZN17ledger_device_sdk4nbgl22nbgl_home_and_settings19NbglHomeAndSettings15show_and_return17h81ca24c8332f76deE)
    1e10     1e10        8     4         /app/target/nanosplus/release/deps/legder_xelis-53a0edecdc8ef744.legder_xelis.24eea2af218bcfe3-cgu.0.rcgu.o:(.rel.text._ZN17ledger_device_sdk4nbgl22nbgl_home_and_settings7quit_cb17h6703984cb119039eE)
    1e18     1e18       28     4         /app/target/nanosplus/release/deps/legder_xelis-53a0edecdc8ef744.legder_xelis.24eea2af218bcfe3-cgu.0.rcgu.o:(.rel.text._ZN17ledger_device_sdk4nbgl18nbgl_review_status16NbglReviewStatus4show17h2e3917498b343fc5E)
    1e40     1e40        8     4         /app/target/nanosplus/release/deps/legder_xelis-53a0edecdc8ef744.legder_xelis.24eea2af218bcfe3-cgu.0.rcgu.o:(.rel.text._ZN17ledger_device_sdk4nbgl13quit_callback17ha379ba0fe9a902f1E)
    1e48     1e48       10     4         /app/target/nanosplus/release/deps/legder_xelis-53a0edecdc8ef744.legder_xelis.24eea2af218bcfe3-cgu.0.rcgu.o:(.rel.boot)
    1e58     1e58       18     4         /app/target/nanosplus/release/deps/legder_xelis-53a0edecdc8ef744.legder_xelis.24eea2af218bcfe3-cgu.0.rcgu.o:(.rel.text._ZN93_$LT$ledger_device_sdk..hash..sha3..Sha3_512$u20$as$u20$ledger_device_sdk..hash..HashInit$GT$3new17hfd9e3c009e5fb161E)
    1e70     1e70        8     4         /app/target/nanosplus/release/deps/legder_xelis-53a0edecdc8ef744.legder_xelis.24eea2af218bcfe3-cgu.0.rcgu.o:(.rel.text._ZN21ledger_secure_sdk_sys4seph5io_rx17h88f65c0acba6d54fE)
    1e78     1e78        8     4         /app/target/nanosplus/release/deps/legder_xelis-53a0edecdc8ef744.legder_xelis.24eea2af218bcfe3-cgu.0.rcgu.o:(.rel.text._ZN21ledger_secure_sdk_sys4seph5io_tx17hd7b3d836181561b0E)
    1e80     1e80        8     4         /app/target/nanosplus/release/deps/legder_xelis-53a0edecdc8ef744.legder_xelis.24eea2af218bcfe3-cgu.0.rcgu.o:(.rel.text._ZN21ledger_secure_sdk_sys8exit_app17he65949cfb92e48f3E)
    1e88     1e88       18     4         /app/target/nanosplus/release/deps/legder_xelis-53a0edecdc8ef744.legder_xelis.24eea2af218bcfe3-cgu.0.rcgu.o:(.rel.text.heap_init)
    1ea0     1ea0       20     4         /app/target/nanosplus/release/deps/legder_xelis-53a0edecdc8ef744.legder_xelis.24eea2af218bcfe3-cgu.0.rcgu.o:(.rel.text.__rust_realloc)
    1ec0     1ec0        8     4         /app/target/nanosplus/release/deps/legder_xelis-53a0edecdc8ef744.legder_xelis.24eea2af218bcfe3-cgu.0.rcgu.o:(.rel.text._ZN4core3ptr7mut_ptr31_$LT$impl$u20$$BP$mut$u20$T$GT$12align_offset17h7916e53460bfccf4E)
    1ec8     1ec8       18     4         /app/target/nanosplus/release/deps/legder_xelis-53a0edecdc8ef744.legder_xelis.24eea2af218bcfe3-cgu.0.rcgu.o:(.rel.text._ZN21linked_list_allocator4hole8HoleList12align_layout17h398d315f45b873efE)
    1ee0     1ee0        8     4         /app/target/nanosplus/release/deps/legder_xelis-53a0edecdc8ef744.legder_xelis.24eea2af218bcfe3-cgu.0.rcgu.o:(.rel.text._ZN69_$LT$core..alloc..layout..LayoutError$u20$as$u20$core..fmt..Debug$GT$3fmt17h83ddb85d0c678701E.220)
    1ee8     1ee8        8     4         /app/target/nanosplus/release/deps/legder_xelis-53a0edecdc8ef744.legder_xelis.24eea2af218bcfe3-cgu.0.rcgu.o:(.rel.text.OUTLINED_FUNCTION_0)
    1ef0     1ef0        8     4         /app/target/nanosplus/release/deps/legder_xelis-53a0edecdc8ef744.legder_xelis.24eea2af218bcfe3-cgu.0.rcgu.o:(.rel.text.OUTLINED_FUNCTION_2)
    1ef8     1ef8        8     4         /app/target/nanosplus/release/deps/legder_xelis-53a0edecdc8ef744.legder_xelis.24eea2af218bcfe3-cgu.0.rcgu.o:(.rel.text.OUTLINED_FUNCTION_3)
    1f00     1f00        8     4         /app/target/nanosplus/release/deps/legder_xelis-53a0edecdc8ef744.legder_xelis.24eea2af218bcfe3-cgu.0.rcgu.o:(.rel.text.OUTLINED_FUNCTION_4)
    1f08     1f08        8     4         /app/target/nanosplus/release/deps/legder_xelis-53a0edecdc8ef744.legder_xelis.24eea2af218bcfe3-cgu.0.rcgu.o:(.rel.text.OUTLINED_FUNCTION_5)
    1f10     1f10        8     4         /app/target/nanosplus/release/deps/legder_xelis-53a0edecdc8ef744.legder_xelis.24eea2af218bcfe3-cgu.0.rcgu.o:(.rel.text.OUTLINED_FUNCTION_6)
    1f18     1f18        8     4         /app/target/nanosplus/release/deps/legder_xelis-53a0edecdc8ef744.legder_xelis.24eea2af218bcfe3-cgu.0.rcgu.o:(.rel.text.OUTLINED_FUNCTION_7)
    1f20     1f20        8     4         /app/target/nanosplus/release/deps/legder_xelis-53a0edecdc8ef744.legder_xelis.24eea2af218bcfe3-cgu.0.rcgu.o:(.rel.text.OUTLINED_FUNCTION_8)
    1f28     1f28        8     4         /app/target/nanosplus/release/deps/legder_xelis-53a0edecdc8ef744.legder_xelis.24eea2af218bcfe3-cgu.0.rcgu.o:(.rel.text.OUTLINED_FUNCTION_9)
    1f30     1f30        8     4         /app/target/nanosplus/release/deps/legder_xelis-53a0edecdc8ef744.legder_xelis.24eea2af218bcfe3-cgu.0.rcgu.o:(.rel.text.OUTLINED_FUNCTION_11)
    1f38     1f38       18     4         /app/target/nanosplus/release/deps/legder_xelis-53a0edecdc8ef744.legder_xelis.24eea2af218bcfe3-cgu.0.rcgu.o:(.rel.text.OUTLINED_FUNCTION_15)
    1f50     1f50        8     4         /app/target/nanosplus/release/deps/legder_xelis-53a0edecdc8ef744.legder_xelis.24eea2af218bcfe3-cgu.0.rcgu.o:(.rel.text.OUTLINED_FUNCTION_17)
    1f58     1f58        8     4         /app/target/nanosplus/release/deps/legder_xelis-53a0edecdc8ef744.legder_xelis.24eea2af218bcfe3-cgu.0.rcgu.o:(.rel.text.OUTLINED_FUNCTION_18)
    1f60     1f60        8     4         /app/target/nanosplus/release/deps/legder_xelis-53a0edecdc8ef744.legder_xelis.24eea2af218bcfe3-cgu.0.rcgu.o:(.rel.text.OUTLINED_FUNCTION_19)
    1f68     1f68        8     4         /app/target/nanosplus/release/deps/legder_xelis-53a0edecdc8ef744.legder_xelis.24eea2af218bcfe3-cgu.0.rcgu.o:(.rel.text.OUTLINED_FUNCTION_20)
    1f70     1f70        8     4         /app/target/nanosplus/release/deps/legder_xelis-53a0edecdc8ef744.legder_xelis.24eea2af218bcfe3-cgu.0.rcgu.o:(.rel.text.OUTLINED_FUNCTION_21)
    1f78     1f78        8     4         /app/target/nanosplus/release/deps/legder_xelis-53a0edecdc8ef744.legder_xelis.24eea2af218bcfe3-cgu.0.rcgu.o:(.rel.text.OUTLINED_FUNCTION_22)
    1f80     1f80        8     4         /app/target/nanosplus/release/deps/legder_xelis-53a0edecdc8ef744.legder_xelis.24eea2af218bcfe3-cgu.0.rcgu.o:(.rel.text.OUTLINED_FUNCTION_23)
    1f88     1f88        8     4         /app/target/nanosplus/release/deps/legder_xelis-53a0edecdc8ef744.legder_xelis.24eea2af218bcfe3-cgu.0.rcgu.o:(.rel.text.OUTLINED_FUNCTION_24)
    1f90     1f90        8     4         /app/target/nanosplus/release/deps/legder_xelis-53a0edecdc8ef744.legder_xelis.24eea2af218bcfe3-cgu.0.rcgu.o:(.rel.text.OUTLINED_FUNCTION_25)
    1f98     1f98        8     4         /app/target/nanosplus/release/deps/legder_xelis-53a0edecdc8ef744.legder_xelis.24eea2af218bcfe3-cgu.0.rcgu.o:(.rel.text.OUTLINED_FUNCTION_26)
    1fa0     1fa0        8     4         /app/target/nanosplus/release/deps/legder_xelis-53a0edecdc8ef744.legder_xelis.24eea2af218bcfe3-cgu.0.rcgu.o:(.rel.text.OUTLINED_FUNCTION_27)
    1fa8     1fa8        8     4         /app/target/nanosplus/release/deps/legder_xelis-53a0edecdc8ef744.legder_xelis.24eea2af218bcfe3-cgu.0.rcgu.o:(.rel.text.OUTLINED_FUNCTION_29)
    1fb0     1fb0       78     4         /tmp/rustcF3LqcJ/libledger_secure_sdk_sys-bd0b62138df877e8.rlib(2a79bb93db92c8b8-src.o):(.rel.text.link_pass)
    2028     2028       20     4         /tmp/rustcF3LqcJ/libledger_secure_sdk_sys-bd0b62138df877e8.rlib(2a79bb93db92c8b8-src.o):(.rel.text.link_pass_ram)
    2048     2048       50     4         /tmp/rustcF3LqcJ/libledger_secure_sdk_sys-bd0b62138df877e8.rlib(2a79bb93db92c8b8-src.o):(.rel.text.link_pass_nvram)
    2098     2098       38     4         /tmp/rustcF3LqcJ/libledger_secure_sdk_sys-bd0b62138df877e8.rlib(2a79bb93db92c8b8-src.o):(.rel.text.c_boot_std)
    20d0     20d0       d8     4         /tmp/rustcF3LqcJ/libledger_secure_sdk_sys-bd0b62138df877e8.rlib(2a79bb93db92c8b8-src.o):(.rel.text.c_main)
    21a8     21a8       28     4         /tmp/rustcF3LqcJ/libledger_secure_sdk_sys-bd0b62138df877e8.rlib(dbe27254336b5a6c-pic.o):(.rel.text.pic)
    21d0     21d0        8     4         /tmp/rustcF3LqcJ/libledger_secure_sdk_sys-bd0b62138df877e8.rlib(dbe27254336b5a6c-pic.o):(.rel.text.pic_internal)
    21d8     21d8        8     4         /tmp/rustcF3LqcJ/libledger_secure_sdk_sys-bd0b62138df877e8.rlib(a8c7b1d3d0023354-cx_stubs.o):(.rel.text.cx_hash_final)
    21e0     21e0        8     4         /tmp/rustcF3LqcJ/libledger_secure_sdk_sys-bd0b62138df877e8.rlib(a8c7b1d3d0023354-cx_stubs.o):(.rel.text.cx_hash_get_size)
    21e8     21e8        8     4         /tmp/rustcF3LqcJ/libledger_secure_sdk_sys-bd0b62138df877e8.rlib(a8c7b1d3d0023354-cx_stubs.o):(.rel.text.cx_hash_update)
    21f0     21f0        8     4         /tmp/rustcF3LqcJ/libledger_secure_sdk_sys-bd0b62138df877e8.rlib(a8c7b1d3d0023354-cx_stubs.o):(.rel.text.cx_math_addm_no_throw)
    21f8     21f8        8     4         /tmp/rustcF3LqcJ/libledger_secure_sdk_sys-bd0b62138df877e8.rlib(a8c7b1d3d0023354-cx_stubs.o):(.rel.text.cx_math_modm_no_throw)
    2200     2200        8     4         /tmp/rustcF3LqcJ/libledger_secure_sdk_sys-bd0b62138df877e8.rlib(a8c7b1d3d0023354-cx_stubs.o):(.rel.text.cx_math_multm_no_throw)
    2208     2208        8     4         /tmp/rustcF3LqcJ/libledger_secure_sdk_sys-bd0b62138df877e8.rlib(a8c7b1d3d0023354-cx_stubs.o):(.rel.text.cx_math_powm_no_throw)
    2210     2210        8     4         /tmp/rustcF3LqcJ/libledger_secure_sdk_sys-bd0b62138df877e8.rlib(a8c7b1d3d0023354-cx_stubs.o):(.rel.text.cx_math_subm_no_throw)
    2218     2218        8     4         /tmp/rustcF3LqcJ/libledger_secure_sdk_sys-bd0b62138df877e8.rlib(a8c7b1d3d0023354-cx_stubs.o):(.rel.text.cx_sha3_init_no_throw)
    2220     2220       10     4         /tmp/rustcF3LqcJ/libledger_secure_sdk_sys-bd0b62138df877e8.rlib(dbe27254336b5a6c-os.o):(.rel.text.os_longjmp)
    2230     2230        8     4         /tmp/rustcF3LqcJ/libledger_secure_sdk_sys-bd0b62138df877e8.rlib(dbe27254336b5a6c-syscalls.o):(.rel.text.nvm_write)
    2238     2238        8     4         /tmp/rustcF3LqcJ/libledger_secure_sdk_sys-bd0b62138df877e8.rlib(dbe27254336b5a6c-syscalls.o):(.rel.text.os_perso_derive_node_bip32)
    2240     2240        8     4         /tmp/rustcF3LqcJ/libledger_secure_sdk_sys-bd0b62138df877e8.rlib(dbe27254336b5a6c-syscalls.o):(.rel.text.os_perso_is_pin_set)
    2248     2248        8     4         /tmp/rustcF3LqcJ/libledger_secure_sdk_sys-bd0b62138df877e8.rlib(dbe27254336b5a6c-syscalls.o):(.rel.text.os_global_pin_is_validated)
    2250     2250       10     4         /tmp/rustcF3LqcJ/libledger_secure_sdk_sys-bd0b62138df877e8.rlib(dbe27254336b5a6c-syscalls.o):(.rel.text.os_ux)
    2260     2260        8     4         /tmp/rustcF3LqcJ/libledger_secure_sdk_sys-bd0b62138df877e8.rlib(dbe27254336b5a6c-syscalls.o):(.rel.text.os_flags)
    2268     2268        8     4         /tmp/rustcF3LqcJ/libledger_secure_sdk_sys-bd0b62138df877e8.rlib(dbe27254336b5a6c-syscalls.o):(.rel.text.os_registry_get_current_app_tag)
    2270     2270       10     4         /tmp/rustcF3LqcJ/libledger_secure_sdk_sys-bd0b62138df877e8.rlib(dbe27254336b5a6c-syscalls.o):(.rel.text.os_sched_exit)
    2280     2280        8     4         /tmp/rustcF3LqcJ/libledger_secure_sdk_sys-bd0b62138df877e8.rlib(dbe27254336b5a6c-syscalls.o):(.rel.text.os_io_init)
    2288     2288        8     4         /tmp/rustcF3LqcJ/libledger_secure_sdk_sys-bd0b62138df877e8.rlib(dbe27254336b5a6c-syscalls.o):(.rel.text.os_io_start)
    2290     2290        8     4         /tmp/rustcF3LqcJ/libledger_secure_sdk_sys-bd0b62138df877e8.rlib(dbe27254336b5a6c-syscalls.o):(.rel.text.os_io_tx_cmd)
    2298     2298        8     4         /tmp/rustcF3LqcJ/libledger_secure_sdk_sys-bd0b62138df877e8.rlib(dbe27254336b5a6c-syscalls.o):(.rel.text.os_io_rx_evt)
    22a0     22a0        8     4         /tmp/rustcF3LqcJ/libledger_secure_sdk_sys-bd0b62138df877e8.rlib(dbe27254336b5a6c-syscalls.o):(.rel.text.try_context_get)
    22a8     22a8       10     4         /tmp/rustcF3LqcJ/libledger_secure_sdk_sys-bd0b62138df877e8.rlib(dbe27254336b5a6c-syscalls.o):(.rel.text.try_context_set)
    22b8     22b8       10     4         /tmp/rustcF3LqcJ/libledger_secure_sdk_sys-bd0b62138df877e8.rlib(dbe27254336b5a6c-syscalls.o):(.rel.text.os_sched_last_status)
    22c8     22c8        8     4         /tmp/rustcF3LqcJ/libledger_secure_sdk_sys-bd0b62138df877e8.rlib(e5d9e18012a2e6ac-svc_call.o):(.rel.text)
    22d0     22d0       28     4         /tmp/rustcF3LqcJ/libledger_secure_sdk_sys-bd0b62138df877e8.rlib(bad1508f163a25cc-ux.o):(.rel.text.ux_process_button_event)
    22f8     22f8       30     4         /tmp/rustcF3LqcJ/libledger_secure_sdk_sys-bd0b62138df877e8.rlib(bad1508f163a25cc-ux.o):(.rel.text.ux_forward_event)
    2328     2328       28     4         /tmp/rustcF3LqcJ/libledger_secure_sdk_sys-bd0b62138df877e8.rlib(bad1508f163a25cc-ux.o):(.rel.text.ux_process_ticker_event)
    2350     2350        8     4         /tmp/rustcF3LqcJ/libledger_secure_sdk_sys-bd0b62138df877e8.rlib(bad1508f163a25cc-ux.o):(.rel.text.ux_process_default_event)
    2358     2358       30     4         /tmp/rustcF3LqcJ/libledger_secure_sdk_sys-bd0b62138df877e8.rlib(196e657857525104-nbgl_use_case_nanos.o):(.rel.text.nbgl_useCaseHomeAndSettings)
    2388     2388       28     4         /tmp/rustcF3LqcJ/libledger_secure_sdk_sys-bd0b62138df877e8.rlib(196e657857525104-nbgl_use_case_nanos.o):(.rel.text.startUseCaseSettingsAtPage)
    23b0     23b0       10     4         /tmp/rustcF3LqcJ/libledger_secure_sdk_sys-bd0b62138df877e8.rlib(196e657857525104-nbgl_use_case_nanos.o):(.rel.text.startUseCaseHome)
    23c0     23c0        8     4         /tmp/rustcF3LqcJ/libledger_secure_sdk_sys-bd0b62138df877e8.rlib(196e657857525104-nbgl_use_case_nanos.o):(.rel.text.nbgl_useCaseReview)
    23c8     23c8       18     4         /tmp/rustcF3LqcJ/libledger_secure_sdk_sys-bd0b62138df877e8.rlib(196e657857525104-nbgl_use_case_nanos.o):(.rel.text.useCaseReview)
    23e0     23e0        8     4         /tmp/rustcF3LqcJ/libledger_secure_sdk_sys-bd0b62138df877e8.rlib(196e657857525104-nbgl_use_case_nanos.o):(.rel.text.nbgl_useCaseReviewLight)
    23e8     23e8       20     4         /tmp/rustcF3LqcJ/libledger_secure_sdk_sys-bd0b62138df877e8.rlib(196e657857525104-nbgl_use_case_nanos.o):(.rel.text.nbgl_useCaseAddressReview)
    2408     2408       48     4         /tmp/rustcF3LqcJ/libledger_secure_sdk_sys-bd0b62138df877e8.rlib(196e657857525104-nbgl_use_case_nanos.o):(.rel.text.displayReviewPage)
    2450     2450       20     4         /tmp/rustcF3LqcJ/libledger_secure_sdk_sys-bd0b62138df877e8.rlib(196e657857525104-nbgl_use_case_nanos.o):(.rel.text.nbgl_useCaseStatus)
    2470     2470       70     4         /tmp/rustcF3LqcJ/libledger_secure_sdk_sys-bd0b62138df877e8.rlib(196e657857525104-nbgl_use_case_nanos.o):(.rel.text.drawStep)
    24e0     24e0        8     4         /tmp/rustcF3LqcJ/libledger_secure_sdk_sys-bd0b62138df877e8.rlib(196e657857525104-nbgl_use_case_nanos.o):(.rel.text.statusButtonCallback)
    24e8     24e8       80     4         /tmp/rustcF3LqcJ/libledger_secure_sdk_sys-bd0b62138df877e8.rlib(196e657857525104-nbgl_use_case_nanos.o):(.rel.text.nbgl_useCaseReviewStatus)
    2568     2568       20     4         /tmp/rustcF3LqcJ/libledger_secure_sdk_sys-bd0b62138df877e8.rlib(196e657857525104-nbgl_use_case_nanos.o):(.rel.text.getContentAtIdx)
    2588     2588       60     4         /tmp/rustcF3LqcJ/libledger_secure_sdk_sys-bd0b62138df877e8.rlib(196e657857525104-nbgl_use_case_nanos.o):(.rel.text.displayContent)
    25e8     25e8       78     4         /tmp/rustcF3LqcJ/libledger_secure_sdk_sys-bd0b62138df877e8.rlib(196e657857525104-nbgl_use_case_nanos.o):(.rel.text.getContentPage)
    2660     2660       10     4         /tmp/rustcF3LqcJ/libledger_secure_sdk_sys-bd0b62138df877e8.rlib(196e657857525104-nbgl_use_case_nanos.o):(.rel.text.drawSwitchStep)
    2670     2670       10     4         /tmp/rustcF3LqcJ/libledger_secure_sdk_sys-bd0b62138df877e8.rlib(196e657857525104-nbgl_use_case_nanos.o):(.rel.text.contentCallback)
    2680     2680       18     4         /tmp/rustcF3LqcJ/libledger_secure_sdk_sys-bd0b62138df877e8.rlib(196e657857525104-nbgl_use_case_nanos.o):(.rel.text.getContentElemAtIdx)
    2698     2698        8     4         /tmp/rustcF3LqcJ/libledger_secure_sdk_sys-bd0b62138df877e8.rlib(196e657857525104-nbgl_use_case_nanos.o):(.rel.text.getPairData)
    26a0     26a0       38     4         /tmp/rustcF3LqcJ/libledger_secure_sdk_sys-bd0b62138df877e8.rlib(196e657857525104-nbgl_use_case_nanos.o):(.rel.text.onSwitchAction)
    26d8     26d8       60     4         /tmp/rustcF3LqcJ/libledger_secure_sdk_sys-bd0b62138df877e8.rlib(196e657857525104-nbgl_use_case_nanos.o):(.rel.text.displaySettingsPage)
    2738     2738       10     4         /tmp/rustcF3LqcJ/libledger_secure_sdk_sys-bd0b62138df877e8.rlib(196e657857525104-nbgl_use_case_nanos.o):(.rel.text.settingsCallback)
    2748     2748       18     4         /tmp/rustcF3LqcJ/libledger_secure_sdk_sys-bd0b62138df877e8.rlib(196e657857525104-nbgl_use_case_nanos.o):(.rel.text.buttonGenericCallback)
    2760     2760       70     4         /tmp/rustcF3LqcJ/libledger_secure_sdk_sys-bd0b62138df877e8.rlib(196e657857525104-nbgl_use_case_nanos.o):(.rel.text.displayHomePage)
    27d0     27d0        8     4         /tmp/rustcF3LqcJ/libledger_secure_sdk_sys-bd0b62138df877e8.rlib(196e657857525104-nbgl_use_case_nanos.o):(.rel.text.startUseCaseSettings)
    27d8     27d8       10     4         /tmp/rustcF3LqcJ/libledger_secure_sdk_sys-bd0b62138df877e8.rlib(196e657857525104-nbgl_use_case_nanos.o):(.rel.text.startUseCaseInfo)
    27e8     27e8       10     4         /tmp/rustcF3LqcJ/libledger_secure_sdk_sys-bd0b62138df877e8.rlib(196e657857525104-nbgl_use_case_nanos.o):(.rel.text.homeCallback)
    27f8     27f8       58     4         /tmp/rustcF3LqcJ/libledger_secure_sdk_sys-bd0b62138df877e8.rlib(196e657857525104-nbgl_use_case_nanos.o):(.rel.text.displayInfoPage)
    2850     2850       10     4         /tmp/rustcF3LqcJ/libledger_secure_sdk_sys-bd0b62138df877e8.rlib(196e657857525104-nbgl_use_case_nanos.o):(.rel.text.infoCallback)
    2860     2860       b8     4         /tmp/rustcF3LqcJ/libledger_secure_sdk_sys-bd0b62138df877e8.rlib(196e657857525104-nbgl_use_case_nanos.o):(.rel.text.getLastPageInfo)
    2918     2918        8     4         /tmp/rustcF3LqcJ/libledger_secure_sdk_sys-bd0b62138df877e8.rlib(196e657857525104-nbgl_use_case_nanos.o):(.rel.text.onReviewAccept)
    2920     2920        8     4         /tmp/rustcF3LqcJ/libledger_secure_sdk_sys-bd0b62138df877e8.rlib(196e657857525104-nbgl_use_case_nanos.o):(.rel.text.onReviewReject)
    2928     2928       18     4         /tmp/rustcF3LqcJ/libledger_secure_sdk_sys-bd0b62138df877e8.rlib(196e657857525104-nbgl_use_case_nanos.o):(.rel.text.displayAliasFullValue)
    2940     2940       10     4         /tmp/rustcF3LqcJ/libledger_secure_sdk_sys-bd0b62138df877e8.rlib(196e657857525104-nbgl_use_case_nanos.o):(.rel.text.reviewCallback)
    2950     2950       68     4         /tmp/rustcF3LqcJ/libledger_secure_sdk_sys-bd0b62138df877e8.rlib(196e657857525104-nbgl_use_case_nanos.o):(.rel.text.displayExtensionStep)
    29b8     29b8       30     4         /tmp/rustcF3LqcJ/libledger_secure_sdk_sys-bd0b62138df877e8.rlib(196e657857525104-nbgl_use_case_nanos.o):(.rel.text.extensionNavigate)
    29e8     29e8        8     4         /tmp/rustcF3LqcJ/libledger_secure_sdk_sys-bd0b62138df877e8.rlib(196e657857525104-nbgl_use_case_nanos.o):(.rel.text.statusTickerCallback)
    29f0     29f0       40     4         /tmp/rustcF3LqcJ/libledger_secure_sdk_sys-bd0b62138df877e8.rlib(196e657857525104-nbgl_use_case_nanos.o):(.rel.text.getChoiceName)
    2a30     2a30       28     4         /tmp/rustcF3LqcJ/libledger_secure_sdk_sys-bd0b62138df877e8.rlib(196e657857525104-nbgl_use_case_nanos.o):(.rel.text.onChoiceSelected)
    2a58     2a58        8     4         /tmp/rustcF3LqcJ/libledger_secure_sdk_sys-bd0b62138df877e8.rlib(196e657857525104-nbgl_use_case_nanos.o):(.rel.text.OUTLINED_FUNCTION_0)
    2a60     2a60        8     4         /tmp/rustcF3LqcJ/libledger_secure_sdk_sys-bd0b62138df877e8.rlib(196e657857525104-nbgl_use_case_nanos.o):(.rel.text.OUTLINED_FUNCTION_4)
    2a68     2a68        8     4         /tmp/rustcF3LqcJ/libledger_secure_sdk_sys-bd0b62138df877e8.rlib(196e657857525104-nbgl_use_case_nanos.o):(.rel.text.OUTLINED_FUNCTION_5)
    2a70     2a70        8     4         /tmp/rustcF3LqcJ/libledger_secure_sdk_sys-bd0b62138df877e8.rlib(196e657857525104-nbgl_use_case_nanos.o):(.rel.text.OUTLINED_FUNCTION_6)
    2a78     2a78        8     4         /tmp/rustcF3LqcJ/libledger_secure_sdk_sys-bd0b62138df877e8.rlib(196e657857525104-nbgl_use_case_nanos.o):(.rel.text.OUTLINED_FUNCTION_7)
    2a80     2a80        8     4         /tmp/rustcF3LqcJ/libledger_secure_sdk_sys-bd0b62138df877e8.rlib(196e657857525104-nbgl_use_case_nanos.o):(.rel.text.OUTLINED_FUNCTION_9)
    2a88     2a88       20     4         /tmp/rustcF3LqcJ/libledger_secure_sdk_sys-bd0b62138df877e8.rlib(196e657857525104-nbgl_step.o):(.rel.text.nbgl_stepDrawText)
    2aa8     2aa8       10     4         /tmp/rustcF3LqcJ/libledger_secure_sdk_sys-bd0b62138df877e8.rlib(196e657857525104-nbgl_step.o):(.rel.text.getFreeContext)
    2ab8     2ab8       80     4         /tmp/rustcF3LqcJ/libledger_secure_sdk_sys-bd0b62138df877e8.rlib(196e657857525104-nbgl_step.o):(.rel.text.displayTextPage)
    2b38     2b38       50     4         /tmp/rustcF3LqcJ/libledger_secure_sdk_sys-bd0b62138df877e8.rlib(196e657857525104-nbgl_step.o):(.rel.text.nbgl_stepDrawCenteredInfo)
    2b88     2b88       10     4         /tmp/rustcF3LqcJ/libledger_secure_sdk_sys-bd0b62138df877e8.rlib(196e657857525104-nbgl_step.o):(.rel.text.actionCallback)
    2b98     2b98       18     4         /tmp/rustcF3LqcJ/libledger_secure_sdk_sys-bd0b62138df877e8.rlib(196e657857525104-nbgl_step.o):(.rel.text.nbgl_stepDrawMenuList)
    2bb0     2bb0       30     4         /tmp/rustcF3LqcJ/libledger_secure_sdk_sys-bd0b62138df877e8.rlib(196e657857525104-nbgl_step.o):(.rel.text.displayMenuList)
    2be0     2be0       50     4         /tmp/rustcF3LqcJ/libledger_secure_sdk_sys-bd0b62138df877e8.rlib(196e657857525104-nbgl_step.o):(.rel.text.nbgl_stepDrawSwitch)
    2c30     2c30        8     4         /tmp/rustcF3LqcJ/libledger_secure_sdk_sys-bd0b62138df877e8.rlib(196e657857525104-nbgl_step.o):(.rel.text.nbgl_stepRelease)
    2c38     2c38        8     4         /tmp/rustcF3LqcJ/libledger_secure_sdk_sys-bd0b62138df877e8.rlib(196e657857525104-nbgl_step.o):(.rel.text.getContextFromLayout)
    2c40     2c40       10     4         /tmp/rustcF3LqcJ/libledger_secure_sdk_sys-bd0b62138df877e8.rlib(196e657857525104-nbgl_step.o):(.rel.text.menuListActionCallback)
    2c50     2c50        8     4         /tmp/rustcF3LqcJ/libledger_secure_sdk_sys-bd0b62138df877e8.rlib(196e657857525104-nbgl_step.o):(.rel.text.OUTLINED_FUNCTION_2)
    2c58     2c58        8     4         /tmp/rustcF3LqcJ/libledger_secure_sdk_sys-bd0b62138df877e8.rlib(196e657857525104-nbgl_step.o):(.rel.text.OUTLINED_FUNCTION_3)
    2c60     2c60        8     4         /tmp/rustcF3LqcJ/libledger_secure_sdk_sys-bd0b62138df877e8.rlib(196e657857525104-nbgl_step.o):(.rel.text.OUTLINED_FUNCTION_4)
    2c68     2c68       28     4         /tmp/rustcF3LqcJ/libledger_secure_sdk_sys-bd0b62138df877e8.rlib(196e657857525104-nbgl_layout_nanos.o):(.rel.text.nbgl_layoutGet)
    2c90     2c90        8     4         /tmp/rustcF3LqcJ/libledger_secure_sdk_sys-bd0b62138df877e8.rlib(196e657857525104-nbgl_layout_nanos.o):(.rel.text.buttonCallback)
    2c98     2c98       30     4         /tmp/rustcF3LqcJ/libledger_secure_sdk_sys-bd0b62138df877e8.rlib(196e657857525104-nbgl_layout_nanos.o):(.rel.text.nbgl_layoutAddNavigation)
    2cc8     2cc8       c8     4         /tmp/rustcF3LqcJ/libledger_secure_sdk_sys-bd0b62138df877e8.rlib(196e657857525104-nbgl_layout_nanos.o):(.rel.text.nbgl_layoutAddText)
    2d90     2d90       10     4         /tmp/rustcF3LqcJ/libledger_secure_sdk_sys-bd0b62138df877e8.rlib(196e657857525104-nbgl_layout_nanos.o):(.rel.text.nbgl_layoutAddMenuList)
    2da0     2da0       88     4         /tmp/rustcF3LqcJ/libledger_secure_sdk_sys-bd0b62138df877e8.rlib(196e657857525104-nbgl_layout_nanos.o):(.rel.text.nbgl_layoutAddCenteredInfo)
    2e28     2e28       70     4         /tmp/rustcF3LqcJ/libledger_secure_sdk_sys-bd0b62138df877e8.rlib(196e657857525104-nbgl_layout_nanos.o):(.rel.text.nbgl_layoutAddSwitch)
    2e98     2e98       10     4         /tmp/rustcF3LqcJ/libledger_secure_sdk_sys-bd0b62138df877e8.rlib(196e657857525104-nbgl_layout_nanos.o):(.rel.text.nbgl_layoutDraw)
    2ea8     2ea8       10     4         /tmp/rustcF3LqcJ/libledger_secure_sdk_sys-bd0b62138df877e8.rlib(196e657857525104-nbgl_layout_nanos.o):(.rel.text.nbgl_layoutRelease)
    2eb8     2eb8        8     4         /tmp/rustcF3LqcJ/libledger_secure_sdk_sys-bd0b62138df877e8.rlib(196e657857525104-nbgl_layout_nanos.o):(.rel.text.OUTLINED_FUNCTION_1)
    2ec0     2ec0        8     4         /tmp/rustcF3LqcJ/libledger_secure_sdk_sys-bd0b62138df877e8.rlib(196e657857525104-nbgl_layout_nanos.o):(.rel.text.OUTLINED_FUNCTION_3)
    2ec8     2ec8        8     4         /tmp/rustcF3LqcJ/libledger_secure_sdk_sys-bd0b62138df877e8.rlib(196e657857525104-nbgl_layout_nanos.o):(.rel.text.OUTLINED_FUNCTION_4)
    2ed0     2ed0        8     4         /tmp/rustcF3LqcJ/libledger_secure_sdk_sys-bd0b62138df877e8.rlib(196e657857525104-nbgl_layout_nanos.o):(.rel.text.OUTLINED_FUNCTION_5)
    2ed8     2ed8        8     4         /tmp/rustcF3LqcJ/libledger_secure_sdk_sys-bd0b62138df877e8.rlib(196e657857525104-nbgl_layout_nanos.o):(.rel.text.OUTLINED_FUNCTION_6)
    2ee0     2ee0       58     4         /tmp/rustcF3LqcJ/libledger_secure_sdk_sys-bd0b62138df877e8.rlib(dbe27254336b5a6c-os_printf.o):(.rel.text.snprintf)
    2f38     2f38        8     4         /tmp/rustcF3LqcJ/libledger_secure_sdk_sys-bd0b62138df877e8.rlib(a8c7b1d3d0023354-nbgl_stubs.o):(.rel.text.nbgl_refresh)
    2f40     2f40        8     4         /tmp/rustcF3LqcJ/libledger_secure_sdk_sys-bd0b62138df877e8.rlib(a8c7b1d3d0023354-nbgl_stubs.o):(.rel.text.nbgl_objAllowDrawing)
    2f48     2f48        8     4         /tmp/rustcF3LqcJ/libledger_secure_sdk_sys-bd0b62138df877e8.rlib(a8c7b1d3d0023354-nbgl_stubs.o):(.rel.text.nbgl_screenSet)
    2f50     2f50        8     4         /tmp/rustcF3LqcJ/libledger_secure_sdk_sys-bd0b62138df877e8.rlib(a8c7b1d3d0023354-nbgl_stubs.o):(.rel.text.nbgl_screenPush)
    2f58     2f58        8     4         /tmp/rustcF3LqcJ/libledger_secure_sdk_sys-bd0b62138df877e8.rlib(a8c7b1d3d0023354-nbgl_stubs.o):(.rel.text.nbgl_screenRedraw)
    2f60     2f60        8     4         /tmp/rustcF3LqcJ/libledger_secure_sdk_sys-bd0b62138df877e8.rlib(a8c7b1d3d0023354-nbgl_stubs.o):(.rel.text.nbgl_screenPop)
    2f68     2f68        8     4         /tmp/rustcF3LqcJ/libledger_secure_sdk_sys-bd0b62138df877e8.rlib(a8c7b1d3d0023354-nbgl_stubs.o):(.rel.text.nbgl_screenHandler)
    2f70     2f70        8     4         /tmp/rustcF3LqcJ/libledger_secure_sdk_sys-bd0b62138df877e8.rlib(a8c7b1d3d0023354-nbgl_stubs.o):(.rel.text.nbgl_objPoolGet)
    2f78     2f78        8     4         /tmp/rustcF3LqcJ/libledger_secure_sdk_sys-bd0b62138df877e8.rlib(a8c7b1d3d0023354-nbgl_stubs.o):(.rel.text.nbgl_containerPoolGet)
    2f80     2f80        8     4         /tmp/rustcF3LqcJ/libledger_secure_sdk_sys-bd0b62138df877e8.rlib(a8c7b1d3d0023354-nbgl_stubs.o):(.rel.text.nbgl_getFont)
    2f88     2f88        8     4         /tmp/rustcF3LqcJ/libledger_secure_sdk_sys-bd0b62138df877e8.rlib(a8c7b1d3d0023354-nbgl_stubs.o):(.rel.text.nbgl_getFontLineHeight)
    2f90     2f90        8     4         /tmp/rustcF3LqcJ/libledger_secure_sdk_sys-bd0b62138df877e8.rlib(a8c7b1d3d0023354-nbgl_stubs.o):(.rel.text.nbgl_getTextMaxLenAndWidth)
    2f98     2f98        8     4         /tmp/rustcF3LqcJ/libledger_secure_sdk_sys-bd0b62138df877e8.rlib(a8c7b1d3d0023354-nbgl_stubs.o):(.rel.text.nbgl_getTextNbLinesInWidth)
    2fa0     2fa0        8     4         /tmp/rustcF3LqcJ/libledger_secure_sdk_sys-bd0b62138df877e8.rlib(a8c7b1d3d0023354-nbgl_stubs.o):(.rel.text.nbgl_getTextNbPagesInWidth)
    2fa8     2fa8        8     4         /tmp/rustcF3LqcJ/libledger_secure_sdk_sys-bd0b62138df877e8.rlib(a8c7b1d3d0023354-nbgl_stubs.o):(.rel.text.nbgl_getTextWidth)
    2fb0     2fb0        8     4         /tmp/rustcF3LqcJ/libledger_secure_sdk_sys-bd0b62138df877e8.rlib(a8c7b1d3d0023354-nbgl_stubs.o):(.rel.text.nbgl_getTextMaxLenInNbLines)
    2fb8     2fb8        8     4         /tmp/rustcF3LqcJ/libledger_secure_sdk_sys-bd0b62138df877e8.rlib(a8c7b1d3d0023354-nbgl_stubs.o):(.rel.text.nbgl_textReduceOnNbLines)
    2fc0     2fc0        8     4         /tmp/rustcF3LqcJ/libledger_secure_sdk_sys-bd0b62138df877e8.rlib(a8c7b1d3d0023354-nbgl_stubs.o):(.rel.text.nbgl_buttonsHandler)
    2fc8     2fc8       18     4         /app/target/nanosplus/release/deps/libcompiler_builtins-4940a827e696cbf2.rlib(compiler_builtins-4940a827e696cbf2.compiler_builtins.f3144e1f1c0dd2b9-cgu.0.rcgu.o):(.rel.text._ZN17compiler_builtins3int19specialized_div_rem11u64_div_rem17he58a75b8275aabc3E)
    2fe0     2fe0        8     4         /app/target/nanosplus/release/deps/libcompiler_builtins-4940a827e696cbf2.rlib(compiler_builtins-4940a827e696cbf2.compiler_builtins.f3144e1f1c0dd2b9-cgu.0.rcgu.o):(.rel.text.__aeabi_llsl)
    2fe8     2fe8       10     4         /app/target/nanosplus/release/deps/libcompiler_builtins-4940a827e696cbf2.rlib(compiler_builtins-4940a827e696cbf2.compiler_builtins.f3144e1f1c0dd2b9-cgu.0.rcgu.o):(.rel.text._ZN17compiler_builtins3int4udiv12__udivmoddi417h6aa0ccaada3a2452E)
    2ff8     2ff8        8     4         /app/target/nanosplus/release/deps/libcompiler_builtins-4940a827e696cbf2.rlib(compiler_builtins-4940a827e696cbf2.compiler_builtins.f3144e1f1c0dd2b9-cgu.0.rcgu.o):(.rel.text.__udivmoddi4)
    3000     3000       10     4         /app/target/nanosplus/release/deps/libcompiler_builtins-4940a827e696cbf2.rlib(compiler_builtins-4940a827e696cbf2.compiler_builtins.f3144e1f1c0dd2b9-cgu.0.rcgu.o):(.rel.text._ZN17compiler_builtins3mem6memcpy17hb578bac52ed7c954E)
    3010     3010        8     4         /app/target/nanosplus/release/deps/libcompiler_builtins-4940a827e696cbf2.rlib(compiler_builtins-4940a827e696cbf2.compiler_builtins.f3144e1f1c0dd2b9-cgu.0.rcgu.o):(.rel.text._ZN17compiler_builtins3mem7memmove17h06e18dfb47e8a651E)
    3018     3018        8     4         /app/target/nanosplus/release/deps/libcompiler_builtins-4940a827e696cbf2.rlib(compiler_builtins-4940a827e696cbf2.compiler_builtins.f3144e1f1c0dd2b9-cgu.0.rcgu.o):(.rel.text._ZN17compiler_builtins3mem6memset17h242821867b7e004fE)
    3020     3020        8     4         /app/target/nanosplus/release/deps/libcompiler_builtins-4940a827e696cbf2.rlib(compiler_builtins-4940a827e696cbf2.compiler_builtins.f3144e1f1c0dd2b9-cgu.0.rcgu.o):(.rel.text.memcmp)
    3028     3028        8     4         /app/target/nanosplus/release/deps/libcompiler_builtins-4940a827e696cbf2.rlib(compiler_builtins-4940a827e696cbf2.compiler_builtins.f3144e1f1c0dd2b9-cgu.0.rcgu.o):(.rel.text.__aeabi_uldivmod)
    3030     3030        8     4         /app/target/nanosplus/release/deps/libcompiler_builtins-4940a827e696cbf2.rlib(compiler_builtins-4940a827e696cbf2.compiler_builtins.f3144e1f1c0dd2b9-cgu.0.rcgu.o):(.rel.text.__aeabi_memcpy)
    3038     3038        8     4         /app/target/nanosplus/release/deps/libcompiler_builtins-4940a827e696cbf2.rlib(compiler_builtins-4940a827e696cbf2.compiler_builtins.f3144e1f1c0dd2b9-cgu.0.rcgu.o):(.rel.text._ZN17compiler_builtins3arm15__aeabi_memcpy417h3c1a197e159b48cdE)
    3040     3040        8     4         /app/target/nanosplus/release/deps/libcompiler_builtins-4940a827e696cbf2.rlib(compiler_builtins-4940a827e696cbf2.compiler_builtins.f3144e1f1c0dd2b9-cgu.0.rcgu.o):(.rel.text.__aeabi_memcpy4)
    3048     3048        8     4         /app/target/nanosplus/release/deps/libcompiler_builtins-4940a827e696cbf2.rlib(compiler_builtins-4940a827e696cbf2.compiler_builtins.f3144e1f1c0dd2b9-cgu.0.rcgu.o):(.rel.text.__aeabi_memcpy8)
    3050     3050        8     4         /app/target/nanosplus/release/deps/libcompiler_builtins-4940a827e696cbf2.rlib(compiler_builtins-4940a827e696cbf2.compiler_builtins.f3144e1f1c0dd2b9-cgu.0.rcgu.o):(.rel.text.__aeabi_memmove)
    3058     3058        8     4         /app/target/nanosplus/release/deps/libcompiler_builtins-4940a827e696cbf2.rlib(compiler_builtins-4940a827e696cbf2.compiler_builtins.f3144e1f1c0dd2b9-cgu.0.rcgu.o):(.rel.text.__aeabi_memset)
    3060     3060        8     4         /app/target/nanosplus/release/deps/libcompiler_builtins-4940a827e696cbf2.rlib(compiler_builtins-4940a827e696cbf2.compiler_builtins.f3144e1f1c0dd2b9-cgu.0.rcgu.o):(.rel.text._ZN17compiler_builtins3arm15__aeabi_memset417h96f1f143d8c0b540E)
    3068     3068        8     4         /app/target/nanosplus/release/deps/libcompiler_builtins-4940a827e696cbf2.rlib(compiler_builtins-4940a827e696cbf2.compiler_builtins.f3144e1f1c0dd2b9-cgu.0.rcgu.o):(.rel.text._ZN17compiler_builtins3arm14__aeabi_memclr17h95e9f47a7ccf557eE)
    3070     3070        8     4         /app/target/nanosplus/release/deps/libcompiler_builtins-4940a827e696cbf2.rlib(compiler_builtins-4940a827e696cbf2.compiler_builtins.f3144e1f1c0dd2b9-cgu.0.rcgu.o):(.rel.text.__aeabi_memclr)
    3078     3078        8     4         /app/target/nanosplus/release/deps/libcompiler_builtins-4940a827e696cbf2.rlib(compiler_builtins-4940a827e696cbf2.compiler_builtins.f3144e1f1c0dd2b9-cgu.0.rcgu.o):(.rel.text._ZN17compiler_builtins3arm15__aeabi_memclr417h9e62f46eb2ededf9E)
    3080     3080        8     4         /app/target/nanosplus/release/deps/libcompiler_builtins-4940a827e696cbf2.rlib(compiler_builtins-4940a827e696cbf2.compiler_builtins.f3144e1f1c0dd2b9-cgu.0.rcgu.o):(.rel.text.__aeabi_memclr4)
    3088     3088        8     4         /app/target/nanosplus/release/deps/libcompiler_builtins-4940a827e696cbf2.rlib(compiler_builtins-4940a827e696cbf2.compiler_builtins.f3144e1f1c0dd2b9-cgu.0.rcgu.o):(.rel.text._ZN17compiler_builtins3arm15__aeabi_memclr817ha134f57356b58ac8E)
    3090     3090        8     4         /app/target/nanosplus/release/deps/libcompiler_builtins-4940a827e696cbf2.rlib(compiler_builtins-4940a827e696cbf2.compiler_builtins.f3144e1f1c0dd2b9-cgu.0.rcgu.o):(.rel.text.__aeabi_memclr8)
    3098     3098        8     4         /app/target/nanosplus/release/deps/libcompiler_builtins-4940a827e696cbf2.rlib(compiler_builtins-4940a827e696cbf2.compiler_builtins.f3144e1f1c0dd2b9-cgu.0.rcgu.o):(.rel.text.OUTLINED_FUNCTION_189)
    30a0     30a0        8     4         /app/target/nanosplus/release/deps/libcompiler_builtins-4940a827e696cbf2.rlib(compiler_builtins-4940a827e696cbf2.compiler_builtins.f3144e1f1c0dd2b9-cgu.0.rcgu.o):(.rel.text.OUTLINED_FUNCTION_269)
    30a8     30a8        8     4         /app/target/nanosplus/release/deps/libcompiler_builtins-4940a827e696cbf2.rlib(compiler_builtins-4940a827e696cbf2.compiler_builtins.f3144e1f1c0dd2b9-cgu.0.rcgu.o):(.rel.text.OUTLINED_FUNCTION_303)
       0        0      188     4 .rel.rodata
       0        0       20     4         /app/target/nanosplus/release/deps/legder_xelis-53a0edecdc8ef744.legder_xelis.24eea2af218bcfe3-cgu.0.rcgu.o:(.rel.rodata..Lanon.6b014ad84d8302ab455e1b726636eb9c.7)
      20       20        8     4         /app/target/nanosplus/release/deps/legder_xelis-53a0edecdc8ef744.legder_xelis.24eea2af218bcfe3-cgu.0.rcgu.o:(.rel.rodata..Lanon.6b014ad84d8302ab455e1b726636eb9c.12)
      28       28        8     4         /app/target/nanosplus/release/deps/legder_xelis-53a0edecdc8ef744.legder_xelis.24eea2af218bcfe3-cgu.0.rcgu.o:(.rel.rodata..Lanon.6b014ad84d8302ab455e1b726636eb9c.20)
      30       30        8     4         /app/target/nanosplus/release/deps/legder_xelis-53a0edecdc8ef744.legder_xelis.24eea2af218bcfe3-cgu.0.rcgu.o:(.rel.rodata..Lanon.6b014ad84d8302ab455e1b726636eb9c.23)
      38       38       10     4         /app/target/nanosplus/release/deps/legder_xelis-53a0edecdc8ef744.legder_xelis.24eea2af218bcfe3-cgu.0.rcgu.o:(.rel.rodata..Lanon.6b014ad84d8302ab455e1b726636eb9c.57)
      48       48       10     4         /app/target/nanosplus/release/deps/legder_xelis-53a0edecdc8ef744.legder_xelis.24eea2af218bcfe3-cgu.0.rcgu.o:(.rel.rodata..Lanon.6b014ad84d8302ab455e1b726636eb9c.60)
      58       58        8     4         /app/target/nanosplus/release/deps/legder_xelis-53a0edecdc8ef744.legder_xelis.24eea2af218bcfe3-cgu.0.rcgu.o:(.rel.rodata..Lanon.6b014ad84d8302ab455e1b726636eb9c.61)
      60       60        8     4         /app/target/nanosplus/release/deps/legder_xelis-53a0edecdc8ef744.legder_xelis.24eea2af218bcfe3-cgu.0.rcgu.o:(.rel.rodata..Lanon.6b014ad84d8302ab455e1b726636eb9c.62)
      68       68        8     4         /app/target/nanosplus/release/deps/legder_xelis-53a0edecdc8ef744.legder_xelis.24eea2af218bcfe3-cgu.0.rcgu.o:(.rel.rodata..Lanon.6b014ad84d8302ab455e1b726636eb9c.63)
      70       70        8     4         /app/target/nanosplus/release/deps/legder_xelis-53a0edecdc8ef744.legder_xelis.24eea2af218bcfe3-cgu.0.rcgu.o:(.rel.rodata..Lanon.6b014ad84d8302ab455e1b726636eb9c.64)
      78       78        8     4         /app/target/nanosplus/release/deps/legder_xelis-53a0edecdc8ef744.legder_xelis.24eea2af218bcfe3-cgu.0.rcgu.o:(.rel.rodata..Lanon.6b014ad84d8302ab455e1b726636eb9c.65)
      80       80        8     4         /app/target/nanosplus/release/deps/legder_xelis-53a0edecdc8ef744.legder_xelis.24eea2af218bcfe3-cgu.0.rcgu.o:(.rel.rodata..Lanon.6b014ad84d8302ab455e1b726636eb9c.66)
      88       88        8     4         /app/target/nanosplus/release/deps/legder_xelis-53a0edecdc8ef744.legder_xelis.24eea2af218bcfe3-cgu.0.rcgu.o:(.rel.rodata..Lanon.6b014ad84d8302ab455e1b726636eb9c.133)
      90       90       10     4         /app/target/nanosplus/release/deps/legder_xelis-53a0edecdc8ef744.legder_xelis.24eea2af218bcfe3-cgu.0.rcgu.o:(.rel.rodata..Lanon.6b014ad84d8302ab455e1b726636eb9c.146)
      a0       a0        8     4         /app/target/nanosplus/release/deps/legder_xelis-53a0edecdc8ef744.legder_xelis.24eea2af218bcfe3-cgu.0.rcgu.o:(.rel.rodata..Lanon.6b014ad84d8302ab455e1b726636eb9c.155)
      a8       a8       10     4         /app/target/nanosplus/release/deps/legder_xelis-53a0edecdc8ef744.legder_xelis.24eea2af218bcfe3-cgu.0.rcgu.o:(.rel.rodata..Lanon.6b014ad84d8302ab455e1b726636eb9c.157)
      b8       b8        8     4         /app/target/nanosplus/release/deps/legder_xelis-53a0edecdc8ef744.legder_xelis.24eea2af218bcfe3-cgu.0.rcgu.o:(.rel.rodata..Lanon.6b014ad84d8302ab455e1b726636eb9c.166)
      c0       c0        8     4         /app/target/nanosplus/release/deps/legder_xelis-53a0edecdc8ef744.legder_xelis.24eea2af218bcfe3-cgu.0.rcgu.o:(.rel.rodata..Lanon.1acdd78f31c699cde19e92f6aea44462.0)
      c8       c8       20     4         /app/target/nanosplus/release/deps/legder_xelis-53a0edecdc8ef744.legder_xelis.24eea2af218bcfe3-cgu.0.rcgu.o:(.rel.rodata..Lanon.1acdd78f31c699cde19e92f6aea44462.6)
      e8       e8       18     4         /app/target/nanosplus/release/deps/legder_xelis-53a0edecdc8ef744.legder_xelis.24eea2af218bcfe3-cgu.0.rcgu.o:(.rel.rodata..Lanon.9c59b2d54c2fc7f68cdfefb9927b5521.288)
     100      100       10     4         /app/target/nanosplus/release/deps/legder_xelis-53a0edecdc8ef744.legder_xelis.24eea2af218bcfe3-cgu.0.rcgu.o:(.rel.rodata..Lanon.290bfdce3d219b63c182839b60026522.12)
     110      110       10     4         /app/target/nanosplus/release/deps/legder_xelis-53a0edecdc8ef744.legder_xelis.24eea2af218bcfe3-cgu.0.rcgu.o:(.rel.rodata..Lanon.290bfdce3d219b63c182839b60026522.104)
     120      120        8     4         /app/target/nanosplus/release/deps/legder_xelis-53a0edecdc8ef744.legder_xelis.24eea2af218bcfe3-cgu.0.rcgu.o:(.rel.rodata..Lanon.0744f3929c562ab7b4ff64019a058b73.4)
     128      128        8     4         /tmp/rustcF3LqcJ/libledger_secure_sdk_sys-bd0b62138df877e8.rlib(8f3ff09fca89963b-glyphs.o):(.rel.rodata.C_icon_validate_14)
     130      130        8     4         /tmp/rustcF3LqcJ/libledger_secure_sdk_sys-bd0b62138df877e8.rlib(8f3ff09fca89963b-glyphs.o):(.rel.rodata.C_icon_right)
     138      138        8     4         /tmp/rustcF3LqcJ/libledger_secure_sdk_sys-bd0b62138df877e8.rlib(8f3ff09fca89963b-glyphs.o):(.rel.rodata.C_icon_back_x)
     140      140        8     4         /tmp/rustcF3LqcJ/libledger_secure_sdk_sys-bd0b62138df877e8.rlib(8f3ff09fca89963b-glyphs.o):(.rel.rodata.C_Information_circle_14px)
     148      148        8     4         /tmp/rustcF3LqcJ/libledger_secure_sdk_sys-bd0b62138df877e8.rlib(8f3ff09fca89963b-glyphs.o):(.rel.rodata.C_Quit_14px)
     150      150        8     4         /tmp/rustcF3LqcJ/libledger_secure_sdk_sys-bd0b62138df877e8.rlib(8f3ff09fca89963b-glyphs.o):(.rel.rodata.C_icon_crossmark)
     158      158        8     4         /tmp/rustcF3LqcJ/libledger_secure_sdk_sys-bd0b62138df877e8.rlib(8f3ff09fca89963b-glyphs.o):(.rel.rodata.C_Switch_On_8px)
     160      160        8     4         /tmp/rustcF3LqcJ/libledger_secure_sdk_sys-bd0b62138df877e8.rlib(8f3ff09fca89963b-glyphs.o):(.rel.rodata.C_icon_down)
     168      168        8     4         /tmp/rustcF3LqcJ/libledger_secure_sdk_sys-bd0b62138df877e8.rlib(8f3ff09fca89963b-glyphs.o):(.rel.rodata.C_Switch_Off_8px)
     170      170        8     4         /tmp/rustcF3LqcJ/libledger_secure_sdk_sys-bd0b62138df877e8.rlib(8f3ff09fca89963b-glyphs.o):(.rel.rodata.C_icon_up)
     178      178        8     4         /tmp/rustcF3LqcJ/libledger_secure_sdk_sys-bd0b62138df877e8.rlib(8f3ff09fca89963b-glyphs.o):(.rel.rodata.C_icon_left)
     180      180        8     4         /tmp/rustcF3LqcJ/libledger_secure_sdk_sys-bd0b62138df877e8.rlib(8f3ff09fca89963b-glyphs.o):(.rel.rodata.C_icon_coggle)
       0        0       af     1 .comment
       0        0       af     1         <internal>:(.comment)
       0        0       34     1 .ARM.attributes
       0        0       34     1         /app/target/nanosplus/release/deps/legder_xelis-53a0edecdc8ef744.legder_xelis.24eea2af218bcfe3-cgu.0.rcgu.o:(.ARM.attributes)
       0        0     49d0     4 .symtab
       0        0     49d0     4         <internal>:(.symtab)
       0        0      12f     1 .shstrtab
       0        0      12f     1         <internal>:(.shstrtab)
       0        0     6eb4     1 .strtab
       0        0     6eb4     1         <internal>:(.strtab)
